(lp0
(dp1
Vfare
p2
F10.0
sVpassengers
p3
I1
sVdropoffLongitude
p4
F-73.97577667236328
sVpickupTime
p5
cdatetime
datetime
p6
(S'\x07\xe0\x01\x01\x00\t\x07\x00\x00\x00'
p7
tp8
Rp9
sVdropoffLatitude
p10
F40.786624908447266
sVdropoffTime
p11
g6
(S'\x07\xe0\x01\x01\x00\x14\x07\x00\x00\x00'
p12
tp13
Rp14
sV_id
p15
ccopy_reg
_reconstructor
p16
(cbson.objectid
ObjectId
p17
c__builtin__
object
p18
Ntp19
Rp20
S'XD\xea\xd7\x1dA\xc8RU:\xb67'
p21
bsVpickupLongitude
p22
F-73.9468994140625
sVpickupLatitude
p23
F40.77189636230469
sa(dp24
Vfare
p25
F7.5
sVpassengers
p26
I3
sVdropoffLongitude
p27
F-73.96376037597656
sVpickupTime
p28
g6
(S'\x07\xe0\x01\x01\x00\n/\x00\x00\x00'
p29
tp30
Rp31
sVdropoffLatitude
p32
F40.75751876831055
sVdropoffTime
p33
g6
(S'\x07\xe0\x01\x01\x00\x0f6\x00\x00\x00'
p34
tp35
Rp36
sV_id
p37
g16
(g17
g18
Ntp38
Rp39
S'XD\xea\xd7\x1dA\xc8RU:\xb8\x87'
p40
bsVpickupLongitude
p41
F-73.94700622558594
sVpickupLatitude
p42
F40.771724700927734
sa(dp43
Vfare
p44
F15.0
sVpassengers
p45
I1
sVdropoffLongitude
p46
F-73.9813232421875
sVpickupTime
p47
g6
(S'\x07\xe0\x01\x01\x00\x11.\x00\x00\x00'
p48
tp49
Rp50
sVdropoffLatitude
p51
F40.72189712524414
sVdropoffTime
p52
g6
(S'\x07\xe0\x01\x01\x00\x1a#\x00\x00\x00'
p53
tp54
Rp55
sV_id
p56
g16
(g17
g18
Ntp57
Rp58
S'XD\xea\xd7\x1dA\xc8RU:\xc3\xe5'
p59
bsVpickupLongitude
p60
F-73.94990539550781
sVpickupLatitude
p61
F40.771995544433594
sa(dp62
Vfare
p63
F13.0
sVpassengers
p64
I2
sVdropoffLongitude
p65
F-73.9771499633789
sVpickupTime
p66
g6
(S'\x07\xe0\x01\x01\x00\x19\x13\x00\x00\x00'
p67
tp68
Rp69
sVdropoffLatitude
p70
F40.745269775390625
sVdropoffTime
p71
g6
(S'\x07\xe0\x01\x01\x00&\x14\x00\x00\x00'
p72
tp73
Rp74
sV_id
p75
g16
(g17
g18
Ntp76
Rp77
S'XD\xea\xd7\x1dA\xc8RU:\xd15'
p78
bsVpickupLongitude
p79
F-73.9496841430664
sVpickupLatitude
p80
F40.771976470947266
sa(dp81
Vfare
p82
F8.5
sVpassengers
p83
I1
sVdropoffLongitude
p84
F-73.970703125
sVpickupTime
p85
g6
(S'\x07\xe0\x01\x01\x00\x1e7\x00\x00\x00'
p86
tp87
Rp88
sVdropoffLatitude
p89
F40.75
sVdropoffTime
p90
g6
(S'\x07\xe0\x01\x01\x00%\x0f\x00\x00\x00'
p91
tp92
Rp93
sV_id
p94
g16
(g17
g18
Ntp95
Rp96
S'XD\xea\xd7\x1dA\xc8RU:\xdb3'
p97
bsVpickupLongitude
p98
F-73.94761657714844
sVpickupLatitude
p99
F40.77104187011719
sa(dp100
Vfare
p101
F9.5
sVpassengers
p102
I1
sVdropoffLongitude
p103
F-73.97624969482422
sVpickupTime
p104
g6
(S'\x07\xe0\x01\x01\x00!\x1f\x00\x00\x00'
p105
tp106
Rp107
sVdropoffLatitude
p108
F40.77594757080078
sVdropoffTime
p109
g6
(S'\x07\xe0\x01\x01\x00+\x13\x00\x00\x00'
p110
tp111
Rp112
sV_id
p113
g16
(g17
g18
Ntp114
Rp115
S'XD\xea\xd7\x1dA\xc8RU:\xdf\xe5'
p116
bsVpickupLongitude
p117
F-73.94705963134766
sVpickupLatitude
p118
F40.77180862426758
sa(dp119
Vfare
p120
F7.5
sVpassengers
p121
I1
sVdropoffLongitude
p122
F-73.96179962158203
sVpickupTime
p123
g6
(S'\x07\xe0\x01\x01\x00+/\x00\x00\x00'
p124
tp125
Rp126
sVdropoffLatitude
p127
F40.759857177734375
sVdropoffTime
p128
g6
(S'\x07\xe0\x01\x01\x003\x1f\x00\x00\x00'
p129
tp130
Rp131
sV_id
p132
g16
(g17
g18
Ntp133
Rp134
S'XD\xea\xd7\x1dA\xc8RU:\xf3\x1d'
p135
bsVpickupLongitude
p136
F-73.94750213623047
sVpickupLatitude
p137
F40.771209716796875
sa(dp138
Vfare
p139
F9.5
sVpassengers
p140
I2
sVdropoffLongitude
p141
F-73.97026824951172
sVpickupTime
p142
g6
(S'\x07\xe0\x01\x01\x00.\x1e\x00\x00\x00'
p143
tp144
Rp145
sVdropoffLatitude
p146
F40.789207458496094
sVdropoffTime
p147
g6
(S'\x07\xe0\x01\x01\x0080\x00\x00\x00'
p148
tp149
Rp150
sV_id
p151
g16
(g17
g18
Ntp152
Rp153
S'XD\xea\xd7\x1dA\xc8RU:\xf8G'
p154
bsVpickupLongitude
p155
F-73.94701385498047
sVpickupLatitude
p156
F40.771873474121094
sa(dp157
Vfare
p158
F5.0
sVpassengers
p159
I1
sVdropoffLongitude
p160
F-73.955322265625
sVpickupTime
p161
g6
(S'\x07\xe0\x01\x01\x0015\x00\x00\x00'
p162
tp163
Rp164
sVdropoffLatitude
p165
F40.76868438720703
sVdropoffTime
p166
g6
(S'\x07\xe0\x01\x01\x005&\x00\x00\x00'
p167
tp168
Rp169
sV_id
p170
g16
(g17
g18
Ntp171
Rp172
S'XD\xea\xd7\x1dA\xc8RU:\xfe\x80'
p173
bsVpickupLongitude
p174
F-73.947021484375
sVpickupLatitude
p175
F40.771793365478516
sa(dp176
Vfare
p177
F14.0
sVpassengers
p178
I1
sVdropoffLongitude
p179
F-73.98471069335938
sVpickupTime
p180
g6
(S'\x07\xe0\x01\x01\x01\x024\x00\x00\x00'
p181
tp182
Rp183
sVdropoffLatitude
p184
F40.764923095703125
sVdropoffTime
p185
g6
(S'\x07\xe0\x01\x01\x01\x13\x01\x00\x00\x00'
p186
tp187
Rp188
sV_id
p189
g16
(g17
g18
Ntp190
Rp191
S'XD\xea\xd7\x1dA\xc8RU;\x17$'
p192
bsVpickupLongitude
p193
F-73.94852447509766
sVpickupLatitude
p194
F40.77159118652344
sa(dp195
Vfare
p196
F13.0
sVpassengers
p197
I2
sVdropoffLongitude
p198
F-73.98287963867188
sVpickupTime
p199
g6
(S'\x07\xe0\x01\x01\x01\x05\x16\x00\x00\x00'
p200
tp201
Rp202
sVdropoffLatitude
p203
F40.73878860473633
sVdropoffTime
p204
g6
(S"\x07\xe0\x01\x01\x01\x0f'\x00\x00\x00"
p205
tp206
Rp207
sV_id
p208
g16
(g17
g18
Ntp209
Rp210
S'XD\xea\xd7\x1dA\xc8RU;\x1b\xd0'
p211
bsVpickupLongitude
p212
F-73.94924926757812
sVpickupLatitude
p213
F40.77180099487305
sa(dp214
Vfare
p215
F6.0
sVpassengers
p216
I1
sVdropoffLongitude
p217
F-73.96097564697266
sVpickupTime
p218
g6
(S'\x07\xe0\x01\x01\x01\x14#\x00\x00\x00'
p219
tp220
Rp221
sVdropoffLatitude
p222
F40.75676727294922
sVdropoffTime
p223
g6
(S'\x07\xe0\x01\x01\x01\x181\x00\x00\x00'
p224
tp225
Rp226
sV_id
p227
g16
(g17
g18
Ntp228
Rp229
S'XD\xea\xd8\x1dA\xc8RU;8\xe8'
p230
bsVpickupLongitude
p231
F-73.94756317138672
sVpickupLatitude
p232
F40.77107238769531
sa(dp233
Vfare
p234
F8.0
sVpassengers
p235
I1
sVdropoffLongitude
p236
F-73.9395523071289
sVpickupTime
p237
g6
(S'\x07\xe0\x01\x01\x01\x14,\x00\x00\x00'
p238
tp239
Rp240
sVdropoffLatitude
p241
F40.79361343383789
sVdropoffTime
p242
g6
(S'\x07\xe0\x01\x01\x01\x1b$\x00\x00\x00'
p243
tp244
Rp245
sV_id
p246
g16
(g17
g18
Ntp247
Rp248
S'XD\xea\xd8\x1dA\xc8RU;9:'
p249
bsVpickupLongitude
p250
F-73.94967651367188
sVpickupLatitude
p251
F40.77117156982422
sa(dp252
Vfare
p253
F11.5
sVpassengers
p254
I1
sVdropoffLongitude
p255
F-73.97956085205078
sVpickupTime
p256
g6
(S'\x07\xe0\x01\x01\x01\x16\x19\x00\x00\x00'
p257
tp258
Rp259
sVdropoffLatitude
p260
F40.73743438720703
sVdropoffTime
p261
g6
(S'\x07\xe0\x01\x01\x01\x1e+\x00\x00\x00'
p262
tp263
Rp264
sV_id
p265
g16
(g17
g18
Ntp266
Rp267
S'XD\xea\xd8\x1dA\xc8RU;<h'
p268
bsVpickupLongitude
p269
F-73.94992065429688
sVpickupLatitude
p270
F40.771942138671875
sa(dp271
Vfare
p272
F16.0
sVpassengers
p273
I2
sVdropoffLongitude
p274
F-73.9926528930664
sVpickupTime
p275
g6
(S'\x07\xe0\x01\x01\x010\n\x00\x00\x00'
p276
tp277
Rp278
sVdropoffLatitude
p279
F40.758033752441406
sVdropoffTime
p280
g6
(S'\x07\xe0\x01\x01\x02\t\x10\x00\x00\x00'
p281
tp282
Rp283
sV_id
p284
g16
(g17
g18
Ntp285
Rp286
S'XD\xea\xd8\x1dA\xc8RU;k\xef'
p287
bsVpickupLongitude
p288
F-73.94718170166016
sVpickupLatitude
p289
F40.771793365478516
sa(dp290
Vfare
p291
F6.0
sVpassengers
p292
I1
sVdropoffLongitude
p293
F-73.95968627929688
sVpickupTime
p294
g6
(S"\x07\xe0\x01\x01\x01:'\x00\x00\x00"
p295
tp296
Rp297
sVdropoffLatitude
p298
F40.78144073486328
sVdropoffTime
p299
g6
(S'\x07\xe0\x01\x01\x02\x03\x12\x00\x00\x00'
p300
tp301
Rp302
sV_id
p303
g16
(g17
g18
Ntp304
Rp305
S'XD\xea\xd8\x1dA\xc8RU;~\x9a'
p306
bsVpickupLongitude
p307
F-73.94999694824219
sVpickupLatitude
p308
F40.771915435791016
sa(dp309
Vfare
p310
F13.0
sVpassengers
p311
I1
sVdropoffLongitude
p312
F-73.97676849365234
sVpickupTime
p313
g6
(S'\x07\xe0\x01\x01\x02\x0f4\x00\x00\x00'
p314
tp315
Rp316
sVdropoffLatitude
p317
F40.74604034423828
sVdropoffTime
p318
g6
(S'\x07\xe0\x01\x01\x02\x1f\x0b\x00\x00\x00'
p319
tp320
Rp321
sV_id
p322
g16
(g17
g18
Ntp323
Rp324
S'XD\xea\xd8\x1dA\xc8RU;\x9d8'
p325
bsVpickupLongitude
p326
F-73.94706726074219
sVpickupLatitude
p327
F40.77177429199219
sa(dp328
Vfare
p329
F11.5
sVpassengers
p330
I5
sVdropoffLongitude
p331
F-73.97198486328125
sVpickupTime
p332
g6
(S'\x07\xe0\x01\x01\x02\x10\x07\x00\x00\x00'
p333
tp334
Rp335
sVdropoffLatitude
p336
F40.79697036743164
sVdropoffTime
p337
g6
(S'\x07\xe0\x01\x01\x02\x1b\x17\x00\x00\x00'
p338
tp339
Rp340
sV_id
p341
g16
(g17
g18
Ntp342
Rp343
S'XD\xea\xd8\x1dA\xc8RU;\x9d\x8b'
p344
bsVpickupLongitude
p345
F-73.94793701171875
sVpickupLatitude
p346
F40.77140808105469
sa(dp347
Vfare
p348
F5.0
sVpassengers
p349
I1
sVdropoffLongitude
p350
F-73.9551773071289
sVpickupTime
p351
g6
(S'\x07\xe0\x01\x01\x02\x16\x07\x00\x00\x00'
p352
tp353
Rp354
sVdropoffLatitude
p355
F40.77691650390625
sVdropoffTime
p356
g6
(S'\x07\xe0\x01\x01\x02\x1b\x11\x00\x00\x00'
p357
tp358
Rp359
sV_id
p360
g16
(g17
g18
Ntp361
Rp362
S'XD\xea\xd8\x1dA\xc8RU;\xa7\xcd'
p363
bsVpickupLongitude
p364
F-73.94892883300781
sVpickupLatitude
p365
F40.77177047729492
sa(dp366
Vfare
p367
F20.5
sVpassengers
p368
I2
sVdropoffLongitude
p369
F-74.00244140625
sVpickupTime
p370
g6
(S"\x07\xe0\x01\x01\x02'.\x00\x00\x00"
p371
tp372
Rp373
sVdropoffLatitude
p374
F40.73117446899414
sVdropoffTime
p375
g6
(S'\x07\xe0\x01\x01\x02;5\x00\x00\x00'
p376
tp377
Rp378
sV_id
p379
g16
(g17
g18
Ntp380
Rp381
S'XD\xea\xd8\x1dA\xc8RU;\xc4\xc6'
p382
bsVpickupLongitude
p383
F-73.94709014892578
sVpickupLatitude
p384
F40.77185821533203
sa(dp385
Vfare
p386
F11.0
sVpassengers
p387
I1
sVdropoffLongitude
p388
F-73.9726333618164
sVpickupTime
p389
g6
(S'\x07\xe0\x01\x01\x02;"\x00\x00\x00'
p390
tp391
Rp392
sVdropoffLatitude
p393
F40.79597091674805
sVdropoffTime
p394
g6
(S'\x07\xe0\x01\x01\x03\n,\x00\x00\x00'
p395
tp396
Rp397
sV_id
p398
g16
(g17
g18
Ntp399
Rp400
S'XD\xea\xd8\x1dA\xc8RU;\xe3\xf2'
p401
bsVpickupLongitude
p402
F-73.94727325439453
sVpickupLatitude
p403
F40.771541595458984
sa(dp404
Vfare
p405
F21.0
sVpassengers
p406
I1
sVdropoffLongitude
p407
F-73.94967651367188
sVpickupTime
p408
g6
(S'\x07\xe0\x01\x01\x03*:\x00\x00\x00'
p409
tp410
Rp411
sVdropoffLatitude
p412
F40.83026123046875
sVdropoffTime
p413
g6
(S'\x07\xe0\x01\x01\x04\x01&\x00\x00\x00'
p414
tp415
Rp416
sV_id
p417
g16
(g17
g18
Ntp418
Rp419
S'XD\xea\xd8\x1dA\xc8RU<"\x1d'
p420
bsVpickupLongitude
p421
F-73.9471664428711
sVpickupLatitude
p422
F40.77179718017578
sa(dp423
Vfare
p424
F5.5
sVpassengers
p425
I1
sVdropoffLongitude
p426
F-73.95934295654297
sVpickupTime
p427
g6
(S'\x07\xe0\x01\x01\x04.0\x00\x00\x00'
p428
tp429
Rp430
sVdropoffLatitude
p431
F40.77769088745117
sVdropoffTime
p432
g6
(S'\x07\xe0\x01\x01\x042,\x00\x00\x00'
p433
tp434
Rp435
sV_id
p436
g16
(g17
g18
Ntp437
Rp438
S'XD\xea\xd9\x1dA\xc8RU<j\x08'
p439
bsVpickupLongitude
p440
F-73.94754791259766
sVpickupLatitude
p441
F40.771331787109375
sa(dp442
Vfare
p443
F13.0
sVpassengers
p444
I1
sVdropoffLongitude
p445
F-73.99109649658203
sVpickupTime
p446
g6
(S'\x07\xe0\x01\x01\x06\x03\x08\x00\x00\x00'
p447
tp448
Rp449
sVdropoffLatitude
p450
F40.7504768371582
sVdropoffTime
p451
g6
(S'\x07\xe0\x01\x01\x06\r\x14\x00\x00\x00'
p452
tp453
Rp454
sV_id
p455
g16
(g17
g18
Ntp456
Rp457
S'XD\xea\xd9\x1dA\xc8RU<\x94\xea'
p458
bsVpickupLongitude
p459
F-73.94757080078125
sVpickupLatitude
p460
F40.77107620239258
sa(dp461
Vfare
p462
F10.5
sVpassengers
p463
I1
sVdropoffLongitude
p464
F-73.98248291015625
sVpickupTime
p465
g6
(S'\x07\xe0\x01\x01\x06\r!\x00\x00\x00'
p466
tp467
Rp468
sVdropoffLatitude
p469
F40.76824188232422
sVdropoffTime
p470
g6
(S'\x07\xe0\x01\x01\x06\x177\x00\x00\x00'
p471
tp472
Rp473
sV_id
p474
g16
(g17
g18
Ntp475
Rp476
S'XD\xea\xd9\x1dA\xc8RU<\x99:'
p477
bsVpickupLongitude
p478
F-73.9474868774414
sVpickupLatitude
p479
F40.77183151245117
sa(dp480
Vfare
p481
F13.5
sVpassengers
p482
I1
sVdropoffLongitude
p483
F-73.99150085449219
sVpickupTime
p484
g6
(S'\x07\xe0\x01\x01\x06++\x00\x00\x00'
p485
tp486
Rp487
sVdropoffLatitude
p488
F40.73521423339844
sVdropoffTime
p489
g6
(S'\x07\xe0\x01\x01\x066\x05\x00\x00\x00'
p490
tp491
Rp492
sV_id
p493
g16
(g17
g18
Ntp494
Rp495
S'XD\xea\xd9\x1dA\xc8RU<\xa5*'
p496
bsVpickupLongitude
p497
F-73.9471206665039
sVpickupLatitude
p498
F40.77123260498047
sa(dp499
Vfare
p500
F18.0
sVpassengers
p501
I1
sVdropoffLongitude
p502
F-74.00469207763672
sVpickupTime
p503
g6
(S'\x07\xe0\x01\x01\x067\x16\x00\x00\x00'
p504
tp505
Rp506
sVdropoffLatitude
p507
F40.70989990234375
sVdropoffTime
p508
g6
(S'\x07\xe0\x01\x01\x07\x05\x14\x00\x00\x00'
p509
tp510
Rp511
sV_id
p512
g16
(g17
g18
Ntp513
Rp514
S'XD\xea\xd9\x1dA\xc8RU<\xa9}'
p515
bsVpickupLongitude
p516
F-73.94711303710938
sVpickupLatitude
p517
F40.77193069458008
sa(dp518
Vfare
p519
F13.5
sVpassengers
p520
I1
sVdropoffLongitude
p521
F-73.92562866210938
sVpickupTime
p522
g6
(S'\x07\xe0\x01\x01\x07\x10\x0e\x00\x00\x00'
p523
tp524
Rp525
sVdropoffLatitude
p526
F40.81742477416992
sVdropoffTime
p527
g6
(S'\x07\xe0\x01\x01\x07\x19\x19\x00\x00\x00'
p528
tp529
Rp530
sV_id
p531
g16
(g17
g18
Ntp532
Rp533
S'XD\xea\xd9\x1dA\xc8RU<\xb1\x03'
p534
bsVpickupLongitude
p535
F-73.94966125488281
sVpickupLatitude
p536
F40.77112579345703
sa(dp537
Vfare
p538
F23.5
sVpassengers
p539
I2
sVdropoffLongitude
p540
F-73.8723373413086
sVpickupTime
p541
g6
(S'\x07\xe0\x01\x01\x07\x1d&\x00\x00\x00'
p542
tp543
Rp544
sVdropoffLatitude
p545
F40.77450180053711
sVdropoffTime
p546
g6
(S'\x07\xe0\x01\x01\x07*\x17\x00\x00\x00'
p547
tp548
Rp549
sV_id
p550
g16
(g17
g18
Ntp551
Rp552
S'XD\xea\xd9\x1dA\xc8RU<\xb5\xc4'
p553
bsVpickupLongitude
p554
F-73.94926452636719
sVpickupLatitude
p555
F40.77177047729492
sa(dp556
Vfare
p557
F11.0
sVpassengers
p558
I2
sVdropoffLongitude
p559
F-73.97647094726562
sVpickupTime
p560
g6
(S'\x07\xe0\x01\x01\x07$1\x00\x00\x00'
p561
tp562
Rp563
sVdropoffLatitude
p564
F40.7394905090332
sVdropoffTime
p565
g6
(S'\x07\xe0\x01\x01\x07+\x1e\x00\x00\x00'
p566
tp567
Rp568
sV_id
p569
g16
(g17
g18
Ntp570
Rp571
S'XD\xea\xd9\x1dA\xc8RU<\xb85'
p572
bsVpickupLongitude
p573
F-73.94998931884766
sVpickupLatitude
p574
F40.77146911621094
sa(dp575
Vfare
p576
F5.5
sVpassengers
p577
I2
sVdropoffLongitude
p578
F-73.95967864990234
sVpickupTime
p579
g6
(S'\x07\xe0\x01\x01\x08-:\x00\x00\x00'
p580
tp581
Rp582
sVdropoffLatitude
p583
F40.77394485473633
sVdropoffTime
p584
g6
(S'\x07\xe0\x01\x01\x0825\x00\x00\x00'
p585
tp586
Rp587
sV_id
p588
g16
(g17
g18
Ntp589
Rp590
S'XD\xea\xd9\x1dA\xc8RU<\xce\x97'
p591
bsVpickupLongitude
p592
F-73.94705963134766
sVpickupLatitude
p593
F40.77189636230469
sa(dp594
Vfare
p595
F11.5
sVpassengers
p596
I1
sVdropoffLongitude
p597
F-73.98969268798828
sVpickupTime
p598
g6
(S'\x07\xe0\x01\x01\t\x02&\x00\x00\x00'
p599
tp600
Rp601
sVdropoffLatitude
p602
F40.75783157348633
sVdropoffTime
p603
g6
(S'\x07\xe0\x01\x01\t\x0c\x07\x00\x00\x00'
p604
tp605
Rp606
sV_id
p607
g16
(g17
g18
Ntp608
Rp609
S'XD\xea\xd9\x1dA\xc8RU<\xd3\xe0'
p610
bsVpickupLongitude
p611
F-73.94732666015625
sVpickupLatitude
p612
F40.77151107788086
sa(dp613
Vfare
p614
F8.5
sVpassengers
p615
I6
sVdropoffLongitude
p616
F-73.97451782226562
sVpickupTime
p617
g6
(S'\x07\xe0\x01\x01\t\x031\x00\x00\x00'
p618
tp619
Rp620
sVdropoffLatitude
p621
F40.75354766845703
sVdropoffTime
p622
g6
(S'\x07\xe0\x01\x01\t\t\x17\x00\x00\x00'
p623
tp624
Rp625
sV_id
p626
g16
(g17
g18
Ntp627
Rp628
S'XD\xea\xd9\x1dA\xc8RU<\xd4>'
p629
bsVpickupLongitude
p630
F-73.94754791259766
sVpickupLatitude
p631
F40.771331787109375
sa(dp632
Vfare
p633
F13.0
sVpassengers
p634
I1
sVdropoffLongitude
p635
F-73.99153137207031
sVpickupTime
p636
g6
(S'\x07\xe0\x01\x01\t"\x1e\x00\x00\x00'
p637
tp638
Rp639
sVdropoffLatitude
p640
F40.74972152709961
sVdropoffTime
p641
g6
(S'\x07\xe0\x01\x01\t,;\x00\x00\x00'
p642
tp643
Rp644
sV_id
p645
g16
(g17
g18
Ntp646
Rp647
S'XD\xea\xda\x1dA\xc8RU<\xdf\x9b'
p648
bsVpickupLongitude
p649
F-73.94927978515625
sVpickupLatitude
p650
F40.77183151245117
sa(dp651
Vfare
p652
F13.0
sVpassengers
p653
I3
sVdropoffLongitude
p654
F-73.9906997680664
sVpickupTime
p655
g6
(S"\x07\xe0\x01\x01\t'\x14\x00\x00\x00"
p656
tp657
Rp658
sVdropoffLatitude
p659
F40.740421295166016
sVdropoffTime
p660
g6
(S'\x07\xe0\x01\x01\t05\x00\x00\x00'
p661
tp662
Rp663
sV_id
p664
g16
(g17
g18
Ntp665
Rp666
S'XD\xea\xda\x1dA\xc8RU<\xe1\xa2'
p667
bsVpickupLongitude
p668
F-73.94954681396484
sVpickupLatitude
p669
F40.77104949951172
sa(dp670
Vfare
p671
F14.0
sVpassengers
p672
I2
sVdropoffLongitude
p673
F-73.98858642578125
sVpickupTime
p674
g6
(S'\x07\xe0\x01\x01\t0\x13\x00\x00\x00'
p675
tp676
Rp677
sVdropoffLatitude
p678
F40.75030517578125
sVdropoffTime
p679
g6
(S'\x07\xe0\x01\x01\n\x02/\x00\x00\x00'
p680
tp681
Rp682
sV_id
p683
g16
(g17
g18
Ntp684
Rp685
S'XD\xea\xda\x1dA\xc8RU<\xe5y'
p686
bsVpickupLongitude
p687
F-73.94962310791016
sVpickupLatitude
p688
F40.77180099487305
sa(dp689
Vfare
p690
F16.0
sVpassengers
p691
I1
sVdropoffLongitude
p692
F-73.9867172241211
sVpickupTime
p693
g6
(S'\x07\xe0\x01\x01\n\x04\x13\x00\x00\x00'
p694
tp695
Rp696
sVdropoffLatitude
p697
F40.71958923339844
sVdropoffTime
p698
g6
(S'\x07\xe0\x01\x01\n\x0e\x03\x00\x00\x00'
p699
tp700
Rp701
sV_id
p702
g16
(g17
g18
Ntp703
Rp704
S'XD\xea\xda\x1dA\xc8RU<\xec\xaf'
p705
bsVpickupLongitude
p706
F-73.94953918457031
sVpickupLatitude
p707
F40.771949768066406
sa(dp708
Vfare
p709
F15.0
sVpassengers
p710
I5
sVdropoffLongitude
p711
F-73.995361328125
sVpickupTime
p712
g6
(S'\x07\xe0\x01\x01\n\x14\x1f\x00\x00\x00'
p713
tp714
Rp715
sVdropoffLatitude
p716
F40.73957824707031
sVdropoffTime
p717
g6
(S'\x07\xe0\x01\x01\n"-\x00\x00\x00'
p718
tp719
Rp720
sV_id
p721
g16
(g17
g18
Ntp722
Rp723
S'XD\xea\xda\x1dA\xc8RU<\xf4\xcf'
p724
bsVpickupLongitude
p725
F-73.94697570800781
sVpickupLatitude
p726
F40.77194595336914
sa(dp727
Vfare
p728
F9.0
sVpassengers
p729
I1
sVdropoffLongitude
p730
F-73.97560119628906
sVpickupTime
p731
g6
(S'\x07\xe0\x01\x01\n7\t\x00\x00\x00'
p732
tp733
Rp734
sVdropoffLatitude
p735
F40.751956939697266
sVdropoffTime
p736
g6
(S'\x07\xe0\x01\x01\x0b\x01!\x00\x00\x00'
p737
tp738
Rp739
sV_id
p740
g16
(g17
g18
Ntp741
Rp742
S'XD\xea\xda\x1dA\xc8RU=\x08o'
p743
bsVpickupLongitude
p744
F-73.94758605957031
sVpickupLatitude
p745
F40.77112579345703
sa(dp746
Vfare
p747
F6.5
sVpassengers
p748
I1
sVdropoffLongitude
p749
F-73.95904541015625
sVpickupTime
p750
g6
(S'\x07\xe0\x01\x01\x0b\x01\x1b\x00\x00\x00'
p751
tp752
Rp753
sVdropoffLatitude
p754
F40.78017807006836
sVdropoffTime
p755
g6
(S'\x07\xe0\x01\x01\x0b\x079\x00\x00\x00'
p756
tp757
Rp758
sV_id
p759
g16
(g17
g18
Ntp760
Rp761
S'XD\xea\xda\x1dA\xc8RU=\x0c}'
p762
bsVpickupLongitude
p763
F-73.94691467285156
sVpickupLatitude
p764
F40.77170944213867
sa(dp765
Vfare
p766
F6.0
sVpassengers
p767
I1
sVdropoffLongitude
p768
F-73.95108032226562
sVpickupTime
p769
g6
(S'\x07\xe0\x01\x01\x0b\x060\x00\x00\x00'
p770
tp771
Rp772
sVdropoffLatitude
p773
F40.783382415771484
sVdropoffTime
p774
g6
(S'\x07\xe0\x01\x01\x0b\x0b4\x00\x00\x00'
p775
tp776
Rp777
sV_id
p778
g16
(g17
g18
Ntp779
Rp780
S'XD\xea\xda\x1dA\xc8RU=\x0f\xe5'
p781
bsVpickupLongitude
p782
F-73.94979858398438
sVpickupLatitude
p783
F40.7712287902832
sa(dp784
Vfare
p785
F10.5
sVpassengers
p786
I1
sVdropoffLongitude
p787
F-73.97493743896484
sVpickupTime
p788
g6
(S'\x07\xe0\x01\x01\x0b\t5\x00\x00\x00'
p789
tp790
Rp791
sVdropoffLatitude
p792
F40.75554656982422
sVdropoffTime
p793
g6
(S'\x07\xe0\x01\x01\x0b\x14#\x00\x00\x00'
p794
tp795
Rp796
sV_id
p797
g16
(g17
g18
Ntp798
Rp799
S'XD\xea\xda\x1dA\xc8RU=\x11\xfb'
p800
bsVpickupLongitude
p801
F-73.94976806640625
sVpickupLatitude
p802
F40.771907806396484
sa(dp803
Vfare
p804
F20.0
sVpassengers
p805
I1
sVdropoffLongitude
p806
F-74.00965881347656
sVpickupTime
p807
g6
(S'\x07\xe0\x01\x01\x0b\x0f\x13\x00\x00\x00'
p808
tp809
Rp810
sVdropoffLatitude
p811
F40.70486831665039
sVdropoffTime
p812
g6
(S'\x07\xe0\x01\x01\x0b\x19.\x00\x00\x00'
p813
tp814
Rp815
sV_id
p816
g16
(g17
g18
Ntp817
Rp818
S'XD\xea\xda\x1dA\xc8RU=\x15]'
p819
bsVpickupLongitude
p820
F-73.9498291015625
sVpickupLatitude
p821
F40.77121353149414
sa(dp822
Vfare
p823
F16.0
sVpassengers
p824
I6
sVdropoffLongitude
p825
F-73.98753356933594
sVpickupTime
p826
g6
(S'\x07\xe0\x01\x01\x0b\x16+\x00\x00\x00'
p827
tp828
Rp829
sVdropoffLatitude
p830
F40.720088958740234
sVdropoffTime
p831
g6
(S'\x07\xe0\x01\x01\x0b \x1f\x00\x00\x00'
p832
tp833
Rp834
sV_id
p835
g16
(g17
g18
Ntp836
Rp837
S'XD\xea\xda\x1dA\xc8RU=\x1a\x9a'
p838
bsVpickupLongitude
p839
F-73.94664001464844
sVpickupLatitude
p840
F40.7713508605957
sa(dp841
Vfare
p842
F10.5
sVpassengers
p843
I1
sVdropoffLongitude
p844
F-73.9768295288086
sVpickupTime
p845
g6
(S'\x07\xe0\x01\x01\x0b .\x00\x00\x00'
p846
tp847
Rp848
sVdropoffLatitude
p849
F40.7586784362793
sVdropoffTime
p850
g6
(S'\x07\xe0\x01\x01\x0b*\x13\x00\x00\x00'
p851
tp852
Rp853
sV_id
p854
g16
(g17
g18
Ntp855
Rp856
S'XD\xea\xda\x1dA\xc8RU="\x16'
p857
bsVpickupLongitude
p858
F-73.94685363769531
sVpickupLatitude
p859
F40.77186965942383
sa(dp860
Vfare
p861
F5.0
sVpassengers
p862
I1
sVdropoffLongitude
p863
F-73.95535278320312
sVpickupTime
p864
g6
(S"\x07\xe0\x01\x01\x0b!'\x00\x00\x00"
p865
tp866
Rp867
sVdropoffLatitude
p868
F40.777381896972656
sVdropoffTime
p869
g6
(S'\x07\xe0\x01\x01\x0b&\x1f\x00\x00\x00'
p870
tp871
Rp872
sV_id
p873
g16
(g17
g18
Ntp874
Rp875
S'XD\xea\xda\x1dA\xc8RU="\xdc'
p876
bsVpickupLongitude
p877
F-73.94700622558594
sVpickupLatitude
p878
F40.77182388305664
sa(dp879
Vfare
p880
F13.0
sVpassengers
p881
I1
sVdropoffLongitude
p882
F-73.99079132080078
sVpickupTime
p883
g6
(S'\x07\xe0\x01\x01\x0b$5\x00\x00\x00'
p884
tp885
Rp886
sVdropoffLatitude
p887
F40.73383712768555
sVdropoffTime
p888
g6
(S'\x07\xe0\x01\x01\x0b.\x14\x00\x00\x00'
p889
tp890
Rp891
sV_id
p892
g16
(g17
g18
Ntp893
Rp894
S'XD\xea\xda\x1dA\xc8RU=%O'
p895
bsVpickupLongitude
p896
F-73.94678497314453
sVpickupLatitude
p897
F40.77180099487305
sa(dp898
Vfare
p899
F6.5
sVpassengers
p900
I2
sVdropoffLongitude
p901
F-73.96356964111328
sVpickupTime
p902
g6
(S"\x07\xe0\x01\x01\x0b'1\x00\x00\x00"
p903
tp904
Rp905
sVdropoffLatitude
p906
F40.77516555786133
sVdropoffTime
p907
g6
(S'\x07\xe0\x01\x01\x0b. \x00\x00\x00'
p908
tp909
Rp910
sV_id
p911
g16
(g17
g18
Ntp912
Rp913
S"XD\xea\xda\x1dA\xc8RU='\xba"
p914
bsVpickupLongitude
p915
F-73.94828796386719
sVpickupLatitude
p916
F40.771236419677734
sa(dp917
Vfare
p918
F6.0
sVpassengers
p919
I1
sVdropoffLongitude
p920
F-73.96484375
sVpickupTime
p921
g6
(S'\x07\xe0\x01\x01\x0b14\x00\x00\x00'
p922
tp923
Rp924
sVdropoffLatitude
p925
F40.76883316040039
sVdropoffTime
p926
g6
(S'\x07\xe0\x01\x01\x0b7"\x00\x00\x00'
p927
tp928
Rp929
sV_id
p930
g16
(g17
g18
Ntp931
Rp932
S'XD\xea\xda\x1dA\xc8RU=0v'
p933
bsVpickupLongitude
p934
F-73.94947052001953
sVpickupLatitude
p935
F40.77193832397461
sa(dp936
Vfare
p937
F15.0
sVpassengers
p938
I1
sVdropoffLongitude
p939
F-73.98833465576172
sVpickupTime
p940
g6
(S'\x07\xe0\x01\x01\x0b4\x00\x00\x00\x00'
p941
tp942
Rp943
sVdropoffLatitude
p944
F40.737247467041016
sVdropoffTime
p945
g6
(S'\x07\xe0\x01\x01\x0c\x08$\x00\x00\x00'
p946
tp947
Rp948
sV_id
p949
g16
(g17
g18
Ntp950
Rp951
S'XD\xea\xda\x1dA\xc8RU=2q'
p952
bsVpickupLongitude
p953
F-73.94987487792969
sVpickupLatitude
p954
F40.77101516723633
sa(dp955
Vfare
p956
F12.5
sVpassengers
p957
I1
sVdropoffLongitude
p958
F-73.98848724365234
sVpickupTime
p959
g6
(S'\x07\xe0\x01\x01\x0b8(\x00\x00\x00'
p960
tp961
Rp962
sVdropoffLatitude
p963
F40.73125076293945
sVdropoffTime
p964
g6
(S'\x07\xe0\x01\x01\x0c\x047\x00\x00\x00'
p965
tp966
Rp967
sV_id
p968
g16
(g17
g18
Ntp969
Rp970
S'XD\xea\xda\x1dA\xc8RU=6\x8d'
p971
bsVpickupLongitude
p972
F-73.9473648071289
sVpickupLatitude
p973
F40.771202087402344
sa(dp974
Vfare
p975
F9.0
sVpassengers
p976
I1
sVdropoffLongitude
p977
F-73.98009490966797
sVpickupTime
p978
g6
(S'\x07\xe0\x01\x01\x0b:)\x00\x00\x00'
p979
tp980
Rp981
sVdropoffLatitude
p982
F40.78049850463867
sVdropoffTime
p983
g6
(S'\x07\xe0\x01\x01\x0c\x065\x00\x00\x00'
p984
tp985
Rp986
sV_id
p987
g16
(g17
g18
Ntp988
Rp989
S'XD\xea\xda\x1dA\xc8RU=8^'
p990
bsVpickupLongitude
p991
F-73.94966888427734
sVpickupLatitude
p992
F40.77118682861328
sa(dp993
Vfare
p994
F6.0
sVpassengers
p995
I1
sVdropoffLongitude
p996
F-73.96035766601562
sVpickupTime
p997
g6
(S'\x07\xe0\x01\x01\x0c\x0e\x17\x00\x00\x00'
p998
tp999
Rp1000
sVdropoffLatitude
p1001
F40.7705078125
sVdropoffTime
p1002
g6
(S'\x07\xe0\x01\x01\x0c\x13)\x00\x00\x00'
p1003
tp1004
Rp1005
sV_id
p1006
g16
(g17
g18
Ntp1007
Rp1008
S'XD\xea\xda\x1dA\xc8RU=F~'
p1009
bsVpickupLongitude
p1010
F-73.94986724853516
sVpickupLatitude
p1011
F40.771209716796875
sa(dp1012
Vfare
p1013
F6.0
sVpassengers
p1014
I1
sVdropoffLongitude
p1015
F-73.95088958740234
sVpickupTime
p1016
g6
(S'\x07\xe0\x01\x01\x0c\x16\x02\x00\x00\x00'
p1017
tp1018
Rp1019
sVdropoffLatitude
p1020
F40.779151916503906
sVdropoffTime
p1021
g6
(S'\x07\xe0\x01\x01\x0c\x1c\x08\x00\x00\x00'
p1022
tp1023
Rp1024
sV_id
p1025
g16
(g17
g18
Ntp1026
Rp1027
S'XD\xea\xda\x1dA\xc8RU=Mq'
p1028
bsVpickupLongitude
p1029
F-73.9497299194336
sVpickupLatitude
p1030
F40.771060943603516
sa(dp1031
Vfare
p1032
F8.0
sVpassengers
p1033
I4
sVdropoffLongitude
p1034
F-73.9725341796875
sVpickupTime
p1035
g6
(S'\x07\xe0\x01\x01\x0c\x1e1\x00\x00\x00'
p1036
tp1037
Rp1038
sVdropoffLatitude
p1039
F40.78242874145508
sVdropoffTime
p1040
g6
(S'\x07\xe0\x01\x01\x0c&\x19\x00\x00\x00'
p1041
tp1042
Rp1043
sV_id
p1044
g16
(g17
g18
Ntp1045
Rp1046
S'XD\xea\xda\x1dA\xc8RU=UO'
p1047
bsVpickupLongitude
p1048
F-73.94709777832031
sVpickupLatitude
p1049
F40.771934509277344
sa(dp1050
Vfare
p1051
F6.0
sVpassengers
p1052
I1
sVdropoffLongitude
p1053
F-73.94879913330078
sVpickupTime
p1054
g6
(S'\x07\xe0\x01\x01\x0c \x1a\x00\x00\x00'
p1055
tp1056
Rp1057
sVdropoffLatitude
p1058
F40.78171920776367
sVdropoffTime
p1059
g6
(S'\x07\xe0\x01\x01\x0c&\x06\x00\x00\x00'
p1060
tp1061
Rp1062
sV_id
p1063
g16
(g17
g18
Ntp1064
Rp1065
S'XD\xea\xda\x1dA\xc8RU=V\xcd'
p1066
bsVpickupLongitude
p1067
F-73.9499282836914
sVpickupLatitude
p1068
F40.771968841552734
sa(dp1069
Vfare
p1070
F7.5
sVpassengers
p1071
I1
sVdropoffLongitude
p1072
F-73.97071075439453
sVpickupTime
p1073
g6
(S'\x07\xe0\x01\x01\x0c!\x07\x00\x00\x00'
p1074
tp1075
Rp1076
sVdropoffLatitude
p1077
F40.7549934387207
sVdropoffTime
p1078
g6
(S'\x07\xe0\x01\x01\x0c%\x10\x00\x00\x00'
p1079
tp1080
Rp1081
sV_id
p1082
g16
(g17
g18
Ntp1083
Rp1084
S'XD\xea\xda\x1dA\xc8RU=Wa'
p1085
bsVpickupLongitude
p1086
F-73.94741821289062
sVpickupLatitude
p1087
F40.77134323120117
sa(dp1088
Vfare
p1089
F3.5
sVpassengers
p1090
I1
sVdropoffLongitude
p1091
F-73.95244598388672
sVpickupTime
p1092
g6
(S'\x07\xe0\x01\x01\x0c%\x13\x00\x00\x00'
p1093
tp1094
Rp1095
sVdropoffLatitude
p1096
F40.77225112915039
sVdropoffTime
p1097
g6
(S'\x07\xe0\x01\x01\x0c&(\x00\x00\x00'
p1098
tp1099
Rp1100
sV_id
p1101
g16
(g17
g18
Ntp1102
Rp1103
S'XD\xea\xda\x1dA\xc8RU=[1'
p1104
bsVpickupLongitude
p1105
F-73.94760131835938
sVpickupLatitude
p1106
F40.771419525146484
sa(dp1107
Vfare
p1108
F5.0
sVpassengers
p1109
I1
sVdropoffLongitude
p1110
F-73.95245361328125
sVpickupTime
p1111
g6
(S'\x07\xe0\x01\x01\x0c&\x00\x00\x00\x00'
p1112
tp1113
Rp1114
sVdropoffLatitude
p1115
F40.77650833129883
sVdropoffTime
p1116
g6
(S'\x07\xe0\x01\x01\x0c*\x17\x00\x00\x00'
p1117
tp1118
Rp1119
sV_id
p1120
g16
(g17
g18
Ntp1121
Rp1122
S'XD\xea\xda\x1dA\xc8RU=[\xb0'
p1123
bsVpickupLongitude
p1124
F-73.94696807861328
sVpickupLatitude
p1125
F40.771766662597656
sa(dp1126
Vfare
p1127
F6.5
sVpassengers
p1128
I1
sVdropoffLongitude
p1129
F-73.95989227294922
sVpickupTime
p1130
g6
(S"\x07\xe0\x01\x01\x0c+'\x00\x00\x00"
p1131
tp1132
Rp1133
sVdropoffLatitude
p1134
F40.75852966308594
sVdropoffTime
p1135
g6
(S'\x07\xe0\x01\x01\x0c1\x1c\x00\x00\x00'
p1136
tp1137
Rp1138
sV_id
p1139
g16
(g17
g18
Ntp1140
Rp1141
S'XD\xea\xda\x1dA\xc8RU=`\xf2'
p1142
bsVpickupLongitude
p1143
F-73.94725799560547
sVpickupLatitude
p1144
F40.77189254760742
sa(dp1145
Vfare
p1146
F4.0
sVpassengers
p1147
I1
sVdropoffLongitude
p1148
F-73.94536590576172
sVpickupTime
p1149
g6
(S'\x07\xe0\x01\x01\x0c7\x10\x00\x00\x00'
p1150
tp1151
Rp1152
sVdropoffLatitude
p1153
F40.77833557128906
sVdropoffTime
p1154
g6
(S'\x07\xe0\x01\x01\x0c:\x00\x00\x00\x00'
p1155
tp1156
Rp1157
sV_id
p1158
g16
(g17
g18
Ntp1159
Rp1160
S'XD\xea\xda\x1dA\xc8RU=k\xe3'
p1161
bsVpickupLongitude
p1162
F-73.94691467285156
sVpickupLatitude
p1163
F40.77185821533203
sa(dp1164
Vfare
p1165
F6.5
sVpassengers
p1166
I1
sVdropoffLongitude
p1167
F-73.96394348144531
sVpickupTime
p1168
g6
(S'\x07\xe0\x01\x01\x0c8\r\x00\x00\x00'
p1169
tp1170
Rp1171
sVdropoffLatitude
p1172
F40.7740592956543
sVdropoffTime
p1173
g6
(S'\x07\xe0\x01\x01\r\x03\x15\x00\x00\x00'
p1174
tp1175
Rp1176
sV_id
p1177
g16
(g17
g18
Ntp1178
Rp1179
S'XD\xea\xda\x1dA\xc8RU=l\xdb'
p1180
bsVpickupLongitude
p1181
F-73.94727325439453
sVpickupLatitude
p1182
F40.771671295166016
sa(dp1183
Vfare
p1184
F17.0
sVpassengers
p1185
I1
sVdropoffLongitude
p1186
F-73.99889373779297
sVpickupTime
p1187
g6
(S'\x07\xe0\x01\x01\x0c:\n\x00\x00\x00'
p1188
tp1189
Rp1190
sVdropoffLatitude
p1191
F40.76417922973633
sVdropoffTime
p1192
g6
(S'\x07\xe0\x01\x01\r\x12\x14\x00\x00\x00'
p1193
tp1194
Rp1195
sV_id
p1196
g16
(g17
g18
Ntp1197
Rp1198
S'XD\xea\xda\x1dA\xc8RU=n\xb3'
p1199
bsVpickupLongitude
p1200
F-73.94705963134766
sVpickupLatitude
p1201
F40.771881103515625
sa(dp1202
Vfare
p1203
F13.0
sVpassengers
p1204
I3
sVdropoffLongitude
p1205
F-73.98474884033203
sVpickupTime
p1206
g6
(S'\x07\xe0\x01\x01\x0c;%\x00\x00\x00'
p1207
tp1208
Rp1209
sVdropoffLatitude
p1210
F40.74869918823242
sVdropoffTime
p1211
g6
(S'\x07\xe0\x01\x01\r\x0b+\x00\x00\x00'
p1212
tp1213
Rp1214
sV_id
p1215
g16
(g17
g18
Ntp1216
Rp1217
S'XD\xea\xda\x1dA\xc8RU=p\x02'
p1218
bsVpickupLongitude
p1219
F-73.9497299194336
sVpickupLatitude
p1220
F40.77193832397461
sa(dp1221
Vfare
p1222
F4.5
sVpassengers
p1223
I1
sVdropoffLongitude
p1224
F-73.95377349853516
sVpickupTime
p1225
g6
(S'\x07\xe0\x01\x01\r\r(\x00\x00\x00'
p1226
tp1227
Rp1228
sVdropoffLatitude
p1229
F40.76689147949219
sVdropoffTime
p1230
g6
(S'\x07\xe0\x01\x01\r\x104\x00\x00\x00'
p1231
tp1232
Rp1233
sV_id
p1234
g16
(g17
g18
Ntp1235
Rp1236
S'XD\xea\xda\x1dA\xc8RU=}\x8f'
p1237
bsVpickupLongitude
p1238
F-73.94700622558594
sVpickupLatitude
p1239
F40.77199172973633
sa(dp1240
Vfare
p1241
F8.0
sVpassengers
p1242
I1
sVdropoffLongitude
p1243
F-73.95391845703125
sVpickupTime
p1244
g6
(S'\x07\xe0\x01\x01\r\x1a+\x00\x00\x00'
p1245
tp1246
Rp1247
sVdropoffLatitude
p1248
F40.7874870300293
sVdropoffTime
p1249
g6
(S'\x07\xe0\x01\x01\r"\x1e\x00\x00\x00'
p1250
tp1251
Rp1252
sV_id
p1253
g16
(g17
g18
Ntp1254
Rp1255
S'XD\xea\xda\x1dA\xc8RU=\x8a\x84'
p1256
bsVpickupLongitude
p1257
F-73.94712829589844
sVpickupLatitude
p1258
F40.77170181274414
sa(dp1259
Vfare
p1260
F7.0
sVpassengers
p1261
I1
sVdropoffLongitude
p1262
F-73.9657974243164
sVpickupTime
p1263
g6
(S'\x07\xe0\x01\x01\r#\x04\x00\x00\x00'
p1264
tp1265
Rp1266
sVdropoffLatitude
p1267
F40.76247024536133
sVdropoffTime
p1268
g6
(S'\x07\xe0\x01\x01\r)#\x00\x00\x00'
p1269
tp1270
Rp1271
sV_id
p1272
g16
(g17
g18
Ntp1273
Rp1274
S'XD\xea\xdb\x1dA\xc8RU=\x92\xec'
p1275
bsVpickupLongitude
p1276
F-73.94999694824219
sVpickupLatitude
p1277
F40.7719612121582
sa(dp1278
Vfare
p1279
F13.0
sVpassengers
p1280
I1
sVdropoffLongitude
p1281
F-73.98676300048828
sVpickupTime
p1282
g6
(S'\x07\xe0\x01\x01\r) \x00\x00\x00'
p1283
tp1284
Rp1285
sVdropoffLatitude
p1286
F40.7572135925293
sVdropoffTime
p1287
g6
(S'\x07\xe0\x01\x01\r58\x00\x00\x00'
p1288
tp1289
Rp1290
sV_id
p1291
g16
(g17
g18
Ntp1292
Rp1293
S'XD\xea\xdb\x1dA\xc8RU=\x99b'
p1294
bsVpickupLongitude
p1295
F-73.94954681396484
sVpickupLatitude
p1296
F40.771053314208984
sa(dp1297
Vfare
p1298
F14.0
sVpassengers
p1299
I1
sVdropoffLongitude
p1300
F-73.97038269042969
sVpickupTime
p1301
g6
(S'\x07\xe0\x01\x01\r+&\x00\x00\x00'
p1302
tp1303
Rp1304
sVdropoffLatitude
p1305
F40.79664993286133
sVdropoffTime
p1306
g6
(S'\x07\xe0\x01\x01\x0e\x00\x1b\x00\x00\x00'
p1307
tp1308
Rp1309
sV_id
p1310
g16
(g17
g18
Ntp1311
Rp1312
S'XD\xea\xdb\x1dA\xc8RU=\x9b\xa9'
p1313
bsVpickupLongitude
p1314
F-73.94937896728516
sVpickupLatitude
p1315
F40.77177047729492
sa(dp1316
Vfare
p1317
F6.5
sVpassengers
p1318
I2
sVdropoffLongitude
p1319
F-73.95899963378906
sVpickupTime
p1320
g6
(S'\x07\xe0\x01\x01\r+/\x00\x00\x00'
p1321
tp1322
Rp1323
sVdropoffLatitude
p1324
F40.771671295166016
sVdropoffTime
p1325
g6
(S'\x07\xe0\x01\x01\r3\x01\x00\x00\x00'
p1326
tp1327
Rp1328
sV_id
p1329
g16
(g17
g18
Ntp1330
Rp1331
S'XD\xea\xdb\x1dA\xc8RU=\x9b\xd5'
p1332
bsVpickupLongitude
p1333
F-73.94889068603516
sVpickupLatitude
p1334
F40.77177810668945
sa(dp1335
Vfare
p1336
F13.0
sVpassengers
p1337
I2
sVdropoffLongitude
p1338
F-73.98928833007812
sVpickupTime
p1339
g6
(S'\x07\xe0\x01\x01\r/\x00\x00\x00\x00'
p1340
tp1341
Rp1342
sVdropoffLatitude
p1343
F40.73418426513672
sVdropoffTime
p1344
g6
(S'\x07\xe0\x01\x01\r8\x04\x00\x00\x00'
p1345
tp1346
Rp1347
sV_id
p1348
g16
(g17
g18
Ntp1349
Rp1350
S'XD\xea\xdb\x1dA\xc8RU=\x9f\\'
p1351
bsVpickupLongitude
p1352
F-73.94718933105469
sVpickupLatitude
p1353
F40.7716064453125
sa(dp1354
Vfare
p1355
F5.0
sVpassengers
p1356
I2
sVdropoffLongitude
p1357
F-73.9552001953125
sVpickupTime
p1358
g6
(S'\x07\xe0\x01\x01\r/)\x00\x00\x00'
p1359
tp1360
Rp1361
sVdropoffLatitude
p1362
F40.7684211730957
sVdropoffTime
p1363
g6
(S'\x07\xe0\x01\x01\r3\x10\x00\x00\x00'
p1364
tp1365
Rp1366
sV_id
p1367
g16
(g17
g18
Ntp1368
Rp1369
S'XD\xea\xdb\x1dA\xc8RU=\xa0\x1a'
p1370
bsVpickupLongitude
p1371
F-73.94740295410156
sVpickupLatitude
p1372
F40.77180862426758
sa(dp1373
Vfare
p1374
F11.5
sVpassengers
p1375
I6
sVdropoffLongitude
p1376
F-73.98213958740234
sVpickupTime
p1377
g6
(S'\x07\xe0\x01\x01\r8\x11\x00\x00\x00'
p1378
tp1379
Rp1380
sVdropoffLatitude
p1381
F40.73611068725586
sVdropoffTime
p1382
g6
(S'\x07\xe0\x01\x01\x0e\x027\x00\x00\x00'
p1383
tp1384
Rp1385
sV_id
p1386
g16
(g17
g18
Ntp1387
Rp1388
S'XD\xea\xdb\x1dA\xc8RU=\xa9\x9e'
p1389
bsVpickupLongitude
p1390
F-73.9497299194336
sVpickupLatitude
p1391
F40.77122116088867
sa(dp1392
Vfare
p1393
F5.0
sVpassengers
p1394
I1
sVdropoffLongitude
p1395
F-73.95938110351562
sVpickupTime
p1396
g6
(S'\x07\xe0\x01\x01\r;9\x00\x00\x00'
p1397
tp1398
Rp1399
sVdropoffLatitude
p1400
F40.77439880371094
sVdropoffTime
p1401
g6
(S'\x07\xe0\x01\x01\x0e\x031\x00\x00\x00'
p1402
tp1403
Rp1404
sV_id
p1405
g16
(g17
g18
Ntp1406
Rp1407
S'XD\xea\xdb\x1dA\xc8RU=\xad\x95'
p1408
bsVpickupLongitude
p1409
F-73.94774627685547
sVpickupLatitude
p1410
F40.77119064331055
sa(dp1411
Vfare
p1412
F12.0
sVpassengers
p1413
I1
sVdropoffLongitude
p1414
F-73.98152923583984
sVpickupTime
p1415
g6
(S'\x07\xe0\x01\x01\x0e\x07\r\x00\x00\x00'
p1416
tp1417
Rp1418
sVdropoffLatitude
p1419
F40.771385192871094
sVdropoffTime
p1420
g6
(S'\x07\xe0\x01\x01\x0e\x14 \x00\x00\x00'
p1421
tp1422
Rp1423
sV_id
p1424
g16
(g17
g18
Ntp1425
Rp1426
S'XD\xea\xdb\x1dA\xc8RU=\xb5u'
p1427
bsVpickupLongitude
p1428
F-73.94709014892578
sVpickupLatitude
p1429
F40.77187728881836
sa(dp1430
Vfare
p1431
F5.0
sVpassengers
p1432
I1
sVdropoffLongitude
p1433
F-73.94956970214844
sVpickupTime
p1434
g6
(S'\x07\xe0\x01\x01\x0e\x16\x13\x00\x00\x00'
p1435
tp1436
Rp1437
sVdropoffLatitude
p1438
F40.77101135253906
sVdropoffTime
p1439
g6
(S'\x07\xe0\x01\x01\x0e\x19\x0f\x00\x00\x00'
p1440
tp1441
Rp1442
sV_id
p1443
g16
(g17
g18
Ntp1444
Rp1445
S'XD\xea\xdb\x1dA\xc8RU=\xc5*'
p1446
bsVpickupLongitude
p1447
F-73.94956970214844
sVpickupLatitude
p1448
F40.77101135253906
sa(dp1449
Vfare
p1450
F5.5
sVpassengers
p1451
I2
sVdropoffLongitude
p1452
F-73.95580291748047
sVpickupTime
p1453
g6
(S'\x07\xe0\x01\x01\x0e\x1b"\x00\x00\x00'
p1454
tp1455
Rp1456
sVdropoffLatitude
p1457
F40.7786979675293
sVdropoffTime
p1458
g6
(S'\x07\xe0\x01\x01\x0e \x04\x00\x00\x00'
p1459
tp1460
Rp1461
sV_id
p1462
g16
(g17
g18
Ntp1463
Rp1464
S'XD\xea\xdb\x1dA\xc8RU=\xca\xe4'
p1465
bsVpickupLongitude
p1466
F-73.94998931884766
sVpickupLatitude
p1467
F40.77178192138672
sa(dp1468
Vfare
p1469
F11.0
sVpassengers
p1470
I3
sVdropoffLongitude
p1471
F-73.9818344116211
sVpickupTime
p1472
g6
(S'\x07\xe0\x01\x01\x0e% \x00\x00\x00'
p1473
tp1474
Rp1475
sVdropoffLatitude
p1476
F40.774444580078125
sVdropoffTime
p1477
g6
(S'\x07\xe0\x01\x01\x0e1\x1f\x00\x00\x00'
p1478
tp1479
Rp1480
sV_id
p1481
g16
(g17
g18
Ntp1482
Rp1483
S'XD\xea\xdb\x1dA\xc8RU=\xd5g'
p1484
bsVpickupLongitude
p1485
F-73.94695281982422
sVpickupLatitude
p1486
F40.771888732910156
sa(dp1487
Vfare
p1488
F12.0
sVpassengers
p1489
I2
sVdropoffLongitude
p1490
F-73.98207092285156
sVpickupTime
p1491
g6
(S'\x07\xe0\x01\x01\x0e/&\x00\x00\x00'
p1492
tp1493
Rp1494
sVdropoffLatitude
p1495
F40.75229263305664
sVdropoffTime
p1496
g6
(S'\x07\xe0\x01\x01\x0e;:\x00\x00\x00'
p1497
tp1498
Rp1499
sV_id
p1500
g16
(g17
g18
Ntp1501
Rp1502
S'XD\xea\xdb\x1dA\xc8RU=\xe0\xba'
p1503
bsVpickupLongitude
p1504
F-73.94709777832031
sVpickupLatitude
p1505
F40.771766662597656
sa(dp1506
Vfare
p1507
F11.5
sVpassengers
p1508
I1
sVdropoffLongitude
p1509
F-73.979736328125
sVpickupTime
p1510
g6
(S'\x07\xe0\x01\x01\x0e2%\x00\x00\x00'
p1511
tp1512
Rp1513
sVdropoffLatitude
p1514
F40.755149841308594
sVdropoffTime
p1515
g6
(S'\x07\xe0\x01\x01\x0f\x02\x19\x00\x00\x00'
p1516
tp1517
Rp1518
sV_id
p1519
g16
(g17
g18
Ntp1520
Rp1521
S'XD\xea\xdb\x1dA\xc8RU=\xe4-'
p1522
bsVpickupLongitude
p1523
F-73.9499740600586
sVpickupLatitude
p1524
F40.771183013916016
sa(dp1525
Vfare
p1526
F6.0
sVpassengers
p1527
I1
sVdropoffLongitude
p1528
F-73.96025085449219
sVpickupTime
p1529
g6
(S'\x07\xe0\x01\x01\x0e3\x1f\x00\x00\x00'
p1530
tp1531
Rp1532
sVdropoffLatitude
p1533
F40.7580451965332
sVdropoffTime
p1534
g6
(S'\x07\xe0\x01\x01\x0e7:\x00\x00\x00'
p1535
tp1536
Rp1537
sV_id
p1538
g16
(g17
g18
Ntp1539
Rp1540
S'XD\xea\xdb\x1dA\xc8RU=\xe5\x16'
p1541
bsVpickupLongitude
p1542
F-73.94700622558594
sVpickupLatitude
p1543
F40.771671295166016
sa(dp1544
Vfare
p1545
F14.0
sVpassengers
p1546
I6
sVdropoffLongitude
p1547
F-73.9887924194336
sVpickupTime
p1548
g6
(S'\x07\xe0\x01\x01\x0e5\x16\x00\x00\x00'
p1549
tp1550
Rp1551
sVdropoffLatitude
p1552
F40.73487854003906
sVdropoffTime
p1553
g6
(S'\x07\xe0\x01\x01\x0f\x020\x00\x00\x00'
p1554
tp1555
Rp1556
sV_id
p1557
g16
(g17
g18
Ntp1558
Rp1559
S'XD\xea\xdb\x1dA\xc8RU=\xe7\x15'
p1560
bsVpickupLongitude
p1561
F-73.94737243652344
sVpickupLatitude
p1562
F40.77141189575195
sa(dp1563
Vfare
p1564
F14.0
sVpassengers
p1565
I2
sVdropoffLongitude
p1566
F-73.98754119873047
sVpickupTime
p1567
g6
(S'\x07\xe0\x01\x01\x0f\x0c;\x00\x00\x00'
p1568
tp1569
Rp1570
sVdropoffLatitude
p1571
F40.72880172729492
sVdropoffTime
p1572
g6
(S'\x07\xe0\x01\x01\x0f\x176\x00\x00\x00'
p1573
tp1574
Rp1575
sV_id
p1576
g16
(g17
g18
Ntp1577
Rp1578
S'XD\xea\xdb\x1dA\xc8RU=\xfb\x90'
p1579
bsVpickupLongitude
p1580
F-73.94996643066406
sVpickupLatitude
p1581
F40.771888732910156
sa(dp1582
Vfare
p1583
F5.5
sVpassengers
p1584
I1
sVdropoffLongitude
p1585
F-73.95548248291016
sVpickupTime
p1586
g6
(S'\x07\xe0\x01\x01\x0f\x10\n\x00\x00\x00'
p1587
tp1588
Rp1589
sVdropoffLatitude
p1590
F40.776710510253906
sVdropoffTime
p1591
g6
(S'\x07\xe0\x01\x01\x0f\x149\x00\x00\x00'
p1592
tp1593
Rp1594
sV_id
p1595
g16
(g17
g18
Ntp1596
Rp1597
S'XD\xea\xdb\x1dA\xc8RU=\xff\x13'
p1598
bsVpickupLongitude
p1599
F-73.9476318359375
sVpickupLatitude
p1600
F40.77121353149414
sa(dp1601
Vfare
p1602
F10.0
sVpassengers
p1603
I6
sVdropoffLongitude
p1604
F-73.97957611083984
sVpickupTime
p1605
g6
(S'\x07\xe0\x01\x01\x0f\x15\x14\x00\x00\x00'
p1606
tp1607
Rp1608
sVdropoffLatitude
p1609
F40.74203109741211
sVdropoffTime
p1610
g6
(S'\x07\xe0\x01\x01\x0f\x1c\x13\x00\x00\x00'
p1611
tp1612
Rp1613
sV_id
p1614
g16
(g17
g18
Ntp1615
Rp1616
S'XD\xea\xdb\x1dA\xc8RU>\x04\xa5'
p1617
bsVpickupLongitude
p1618
F-73.94920349121094
sVpickupLatitude
p1619
F40.77153015136719
sa(dp1620
Vfare
p1621
F17.0
sVpassengers
p1622
I1
sVdropoffLongitude
p1623
F-73.98799133300781
sVpickupTime
p1624
g6
(S'\x07\xe0\x01\x01\x0f\x1c\x0f\x00\x00\x00'
p1625
tp1626
Rp1627
sVdropoffLatitude
p1628
F40.73463439941406
sVdropoffTime
p1629
g6
(S'\x07\xe0\x01\x01\x0f,7\x00\x00\x00'
p1630
tp1631
Rp1632
sV_id
p1633
g16
(g17
g18
Ntp1634
Rp1635
S'XD\xea\xdb\x1dA\xc8RU>\x0b\xbe'
p1636
bsVpickupLongitude
p1637
F-73.94725799560547
sVpickupLatitude
p1638
F40.771751403808594
sa(dp1639
Vfare
p1640
F5.5
sVpassengers
p1641
I2
sVdropoffLongitude
p1642
F-73.95417785644531
sVpickupTime
p1643
g6
(S'\x07\xe0\x01\x01\x0f\x1f1\x00\x00\x00'
p1644
tp1645
Rp1646
sVdropoffLatitude
p1647
F40.77888870239258
sVdropoffTime
p1648
g6
(S'\x07\xe0\x01\x01\x0f$\x0b\x00\x00\x00'
p1649
tp1650
Rp1651
sV_id
p1652
g16
(g17
g18
Ntp1653
Rp1654
S'XD\xea\xdb\x1dA\xc8RU>\x0f\x98'
p1655
bsVpickupLongitude
p1656
F-73.94725799560547
sVpickupLatitude
p1657
F40.771732330322266
sa(dp1658
Vfare
p1659
F6.5
sVpassengers
p1660
I3
sVdropoffLongitude
p1661
F-73.96245574951172
sVpickupTime
p1662
g6
(S'\x07\xe0\x01\x01\x0f%\x1d\x00\x00\x00'
p1663
tp1664
Rp1665
sVdropoffLatitude
p1666
F40.77821350097656
sVdropoffTime
p1667
g6
(S'\x07\xe0\x01\x01\x0f,\x0f\x00\x00\x00'
p1668
tp1669
Rp1670
sV_id
p1671
g16
(g17
g18
Ntp1672
Rp1673
S'XD\xea\xdb\x1dA\xc8RU>\x15\xc3'
p1674
bsVpickupLongitude
p1675
F-73.94725799560547
sVpickupLatitude
p1676
F40.771881103515625
sa(dp1677
Vfare
p1678
F10.5
sVpassengers
p1679
I3
sVdropoffLongitude
p1680
F-73.98242950439453
sVpickupTime
p1681
g6
(S'\x07\xe0\x01\x01\x0f&\x14\x00\x00\x00'
p1682
tp1683
Rp1684
sVdropoffLatitude
p1685
F40.77243423461914
sVdropoffTime
p1686
g6
(S'\x07\xe0\x01\x01\x0f1&\x00\x00\x00'
p1687
tp1688
Rp1689
sV_id
p1690
g16
(g17
g18
Ntp1691
Rp1692
S'XD\xea\xdb\x1dA\xc8RU>\x16\xa8'
p1693
bsVpickupLongitude
p1694
F-73.94776916503906
sVpickupLatitude
p1695
F40.771026611328125
sa(dp1696
Vfare
p1697
F6.0
sVpassengers
p1698
I2
sVdropoffLongitude
p1699
F-73.96118927001953
sVpickupTime
p1700
g6
(S'\x07\xe0\x01\x01\x0f(\x01\x00\x00\x00'
p1701
tp1702
Rp1703
sVdropoffLatitude
p1704
F40.76517105102539
sVdropoffTime
p1705
g6
(S'\x07\xe0\x01\x01\x0f-\t\x00\x00\x00'
p1706
tp1707
Rp1708
sV_id
p1709
g16
(g17
g18
Ntp1710
Rp1711
S'XD\xea\xdb\x1dA\xc8RU>\x18n'
p1712
bsVpickupLongitude
p1713
F-73.94886779785156
sVpickupLatitude
p1714
F40.77185821533203
sa(dp1715
Vfare
p1716
F7.0
sVpassengers
p1717
I1
sVdropoffLongitude
p1718
F-73.95600891113281
sVpickupTime
p1719
g6
(S'\x07\xe0\x01\x01\x0f)!\x00\x00\x00'
p1720
tp1721
Rp1722
sVdropoffLatitude
p1723
F40.78153991699219
sVdropoffTime
p1724
g6
(S'\x07\xe0\x01\x01\x0f0\x19\x00\x00\x00'
p1725
tp1726
Rp1727
sV_id
p1728
g16
(g17
g18
Ntp1729
Rp1730
S'XD\xea\xdb\x1dA\xc8RU>\x1a\x01'
p1731
bsVpickupLongitude
p1732
F-73.94735717773438
sVpickupLatitude
p1733
F40.7713508605957
sa(dp1734
Vfare
p1735
F11.0
sVpassengers
p1736
I1
sVdropoffLongitude
p1737
F-73.97427368164062
sVpickupTime
p1738
g6
(S'\x07\xe0\x01\x01\x0f)1\x00\x00\x00'
p1739
tp1740
Rp1741
sVdropoffLatitude
p1742
F40.73163986206055
sVdropoffTime
p1743
g6
(S'\x07\xe0\x01\x01\x0f0!\x00\x00\x00'
p1744
tp1745
Rp1746
sV_id
p1747
g16
(g17
g18
Ntp1748
Rp1749
S'XD\xea\xdb\x1dA\xc8RU>\x1aU'
p1750
bsVpickupLongitude
p1751
F-73.94695281982422
sVpickupLatitude
p1752
F40.77193069458008
sa(dp1753
Vfare
p1754
F6.0
sVpassengers
p1755
I1
sVdropoffLongitude
p1756
F-73.96102905273438
sVpickupTime
p1757
g6
(S'\x07\xe0\x01\x01\x0f6-\x00\x00\x00'
p1758
tp1759
Rp1760
sVdropoffLatitude
p1761
F40.77410888671875
sVdropoffTime
p1762
g6
(S'\x07\xe0\x01\x01\x10\x01\x17\x00\x00\x00'
p1763
tp1764
Rp1765
sV_id
p1766
g16
(g17
g18
Ntp1767
Rp1768
S'XD\xea\xdb\x1dA\xc8RU>(+'
p1769
bsVpickupLongitude
p1770
F-73.94699096679688
sVpickupLatitude
p1771
F40.77180862426758
sa(dp1772
Vfare
p1773
F14.5
sVpassengers
p1774
I1
sVdropoffLongitude
p1775
F-73.98621368408203
sVpickupTime
p1776
g6
(S'\x07\xe0\x01\x01\x0f9\x10\x00\x00\x00'
p1777
tp1778
Rp1779
sVdropoffLatitude
p1780
F40.755760192871094
sVdropoffTime
p1781
g6
(S'\x07\xe0\x01\x01\x10\x0b,\x00\x00\x00'
p1782
tp1783
Rp1784
sV_id
p1785
g16
(g17
g18
Ntp1786
Rp1787
S'XD\xea\xdb\x1dA\xc8RU>*\x9f'
p1788
bsVpickupLongitude
p1789
F-73.94937896728516
sVpickupLatitude
p1790
F40.77101135253906
sa(dp1791
Vfare
p1792
F7.0
sVpassengers
p1793
I1
sVdropoffLongitude
p1794
F-73.96793365478516
sVpickupTime
p1795
g6
(S'\x07\xe0\x01\x01\x10\x07!\x00\x00\x00'
p1796
tp1797
Rp1798
sVdropoffLatitude
p1799
F40.76258850097656
sVdropoffTime
p1800
g6
(S'\x07\xe0\x01\x01\x10\x0e\t\x00\x00\x00'
p1801
tp1802
Rp1803
sV_id
p1804
g16
(g17
g18
Ntp1805
Rp1806
S'XD\xea\xdb\x1dA\xc8RU>4\xf4'
p1807
bsVpickupLongitude
p1808
F-73.94992065429688
sVpickupLatitude
p1809
F40.77117156982422
sa(dp1810
Vfare
p1811
F6.5
sVpassengers
p1812
I1
sVdropoffLongitude
p1813
F-73.96574401855469
sVpickupTime
p1814
g6
(S'\x07\xe0\x01\x01\x10\n7\x00\x00\x00'
p1815
tp1816
Rp1817
sVdropoffLatitude
p1818
F40.77092361450195
sVdropoffTime
p1819
g6
(S'\x07\xe0\x01\x01\x10\x10\x02\x00\x00\x00'
p1820
tp1821
Rp1822
sV_id
p1823
g16
(g17
g18
Ntp1824
Rp1825
S'XD\xea\xdb\x1dA\xc8RU>8-'
p1826
bsVpickupLongitude
p1827
F-73.94773864746094
sVpickupLatitude
p1828
F40.77123260498047
sa(dp1829
Vfare
p1830
F5.0
sVpassengers
p1831
I1
sVdropoffLongitude
p1832
F-73.95353698730469
sVpickupTime
p1833
g6
(S'\x07\xe0\x01\x01\x10\x1a\x1f\x00\x00\x00'
p1834
tp1835
Rp1836
sVdropoffLatitude
p1837
F40.779571533203125
sVdropoffTime
p1838
g6
(S'\x07\xe0\x01\x01\x10\x1e\x0e\x00\x00\x00'
p1839
tp1840
Rp1841
sV_id
p1842
g16
(g17
g18
Ntp1843
Rp1844
S'XD\xea\xdb\x1dA\xc8RU>G6'
p1845
bsVpickupLongitude
p1846
F-73.94727325439453
sVpickupLatitude
p1847
F40.771820068359375
sa(dp1848
Vfare
p1849
F7.5
sVpassengers
p1850
I1
sVdropoffLongitude
p1851
F-73.97103118896484
sVpickupTime
p1852
g6
(S'\x07\xe0\x01\x01\x11\x1e8\x00\x00\x00'
p1853
tp1854
Rp1855
sVdropoffLatitude
p1856
F40.75847625732422
sVdropoffTime
p1857
g6
(S'\x07\xe0\x01\x01\x11$\x13\x00\x00\x00'
p1858
tp1859
Rp1860
sV_id
p1861
g16
(g17
g18
Ntp1862
Rp1863
S'XD\xea\xdc\x1dA\xc8RU>\x86\x05'
p1864
bsVpickupLongitude
p1865
F-73.94754791259766
sVpickupLatitude
p1866
F40.771339416503906
sa(dp1867
Vfare
p1868
F10.0
sVpassengers
p1869
I1
sVdropoffLongitude
p1870
F-73.9811019897461
sVpickupTime
p1871
g6
(S'\x07\xe0\x01\x01\x11!7\x00\x00\x00'
p1872
tp1873
Rp1874
sVdropoffLatitude
p1875
F40.78105163574219
sVdropoffTime
p1876
g6
(S'\x07\xe0\x01\x01\x11+1\x00\x00\x00'
p1877
tp1878
Rp1879
sV_id
p1880
g16
(g17
g18
Ntp1881
Rp1882
S'XD\xea\xdc\x1dA\xc8RU>\x89\x0b'
p1883
bsVpickupLongitude
p1884
F-73.9476089477539
sVpickupLatitude
p1885
F40.77104949951172
sa(dp1886
Vfare
p1887
F5.5
sVpassengers
p1888
I1
sVdropoffLongitude
p1889
F-73.95693969726562
sVpickupTime
p1890
g6
(S'\x07\xe0\x01\x01\x11(#\x00\x00\x00'
p1891
tp1892
Rp1893
sVdropoffLatitude
p1894
F40.78104782104492
sVdropoffTime
p1895
g6
(S'\x07\xe0\x01\x01\x11-\x0f\x00\x00\x00'
p1896
tp1897
Rp1898
sV_id
p1899
g16
(g17
g18
Ntp1900
Rp1901
S'XD\xea\xdc\x1dA\xc8RU>\x8f\xe1'
p1902
bsVpickupLongitude
p1903
F-73.94998168945312
sVpickupLatitude
p1904
F40.77178192138672
sa(dp1905
Vfare
p1906
F26.0
sVpassengers
p1907
I1
sVdropoffLongitude
p1908
F-73.86489868164062
sVpickupTime
p1909
g6
(S'\x07\xe0\x01\x01\x11*-\x00\x00\x00'
p1910
tp1911
Rp1912
sVdropoffLatitude
p1913
F40.770442962646484
sVdropoffTime
p1914
g6
(S'\x07\xe0\x01\x01\x11;0\x00\x00\x00'
p1915
tp1916
Rp1917
sV_id
p1918
g16
(g17
g18
Ntp1919
Rp1920
S'XD\xea\xdc\x1dA\xc8RU>\x927'
p1921
bsVpickupLongitude
p1922
F-73.9489517211914
sVpickupLatitude
p1923
F40.77183532714844
sa(dp1924
Vfare
p1925
F10.5
sVpassengers
p1926
I1
sVdropoffLongitude
p1927
F-73.97309112548828
sVpickupTime
p1928
g6
(S"\x07\xe0\x01\x01\x11+'\x00\x00\x00"
p1929
tp1930
Rp1931
sVdropoffLatitude
p1932
F40.76423645019531
sVdropoffTime
p1933
g6
(S'\x07\xe0\x01\x01\x1174\x00\x00\x00'
p1934
tp1935
Rp1936
sV_id
p1937
g16
(g17
g18
Ntp1938
Rp1939
S'XD\xea\xdc\x1dA\xc8RU>\x93\x1b'
p1940
bsVpickupLongitude
p1941
F-73.94720458984375
sVpickupLatitude
p1942
F40.77164840698242
sa(dp1943
Vfare
p1944
F8.0
sVpassengers
p1945
I3
sVdropoffLongitude
p1946
F-73.94938659667969
sVpickupTime
p1947
g6
(S'\x07\xe0\x01\x01\x110\n\x00\x00\x00'
p1948
tp1949
Rp1950
sVdropoffLatitude
p1951
F40.78504180908203
sVdropoffTime
p1952
g6
(S'\x07\xe0\x01\x01\x1189\x00\x00\x00'
p1953
tp1954
Rp1955
sV_id
p1956
g16
(g17
g18
Ntp1957
Rp1958
S'XD\xea\xdc\x1dA\xc8RU>\x97\xf8'
p1959
bsVpickupLongitude
p1960
F-73.94963073730469
sVpickupLatitude
p1961
F40.771060943603516
sa(dp1962
Vfare
p1963
F6.0
sVpassengers
p1964
I1
sVdropoffLongitude
p1965
F-73.95706176757812
sVpickupTime
p1966
g6
(S'\x07\xe0\x01\x01\x1117\x00\x00\x00'
p1967
tp1968
Rp1969
sVdropoffLatitude
p1970
F40.77463150024414
sVdropoffTime
p1971
g6
(S'\x07\xe0\x01\x01\x118\x05\x00\x00\x00'
p1972
tp1973
Rp1974
sV_id
p1975
g16
(g17
g18
Ntp1976
Rp1977
S'XD\xea\xdc\x1dA\xc8RU>\x99\xfe'
p1978
bsVpickupLongitude
p1979
F-73.94883728027344
sVpickupLatitude
p1980
F40.77170944213867
sa(dp1981
Vfare
p1982
F30.5
sVpassengers
p1983
I3
sVdropoffLongitude
p1984
F-73.99446105957031
sVpickupTime
p1985
g6
(S'\x07\xe0\x01\x01\x11:.\x00\x00\x00'
p1986
tp1987
Rp1988
sVdropoffLatitude
p1989
F40.76340103149414
sVdropoffTime
p1990
g6
(S'\x07\xe0\x01\x01\x12%"\x00\x00\x00'
p1991
tp1992
Rp1993
sV_id
p1994
g16
(g17
g18
Ntp1995
Rp1996
S'XD\xea\xdc\x1dA\xc8RU>\xa3\xaa'
p1997
bsVpickupLongitude
p1998
F-73.94998168945312
sVpickupLatitude
p1999
F40.77125930786133
sa(dp2000
Vfare
p2001
F12.0
sVpassengers
p2002
I2
sVdropoffLongitude
p2003
F-73.96627044677734
sVpickupTime
p2004
g6
(S'\x07\xe0\x01\x01\x12\x00\x0f\x00\x00\x00'
p2005
tp2006
Rp2007
sVdropoffLatitude
p2008
F40.79959487915039
sVdropoffTime
p2009
g6
(S'\x07\xe0\x01\x01\x12\r\x1a\x00\x00\x00'
p2010
tp2011
Rp2012
sV_id
p2013
g16
(g17
g18
Ntp2014
Rp2015
S'XD\xea\xdc\x1dA\xc8RU>\xa52'
p2016
bsVpickupLongitude
p2017
F-73.947509765625
sVpickupLatitude
p2018
F40.77189254760742
sa(dp2019
Vfare
p2020
F7.0
sVpassengers
p2021
I1
sVdropoffLongitude
p2022
F-73.9653549194336
sVpickupTime
p2023
g6
(S'\x07\xe0\x01\x01\x12\x07\x1c\x00\x00\x00'
p2024
tp2025
Rp2026
sVdropoffLatitude
p2027
F40.766109466552734
sVdropoffTime
p2028
g6
(S'\x07\xe0\x01\x01\x12\x0e\x04\x00\x00\x00'
p2029
tp2030
Rp2031
sV_id
p2032
g16
(g17
g18
Ntp2033
Rp2034
S'XD\xea\xdc\x1dA\xc8RU>\xac\xe4'
p2035
bsVpickupLongitude
p2036
F-73.94963836669922
sVpickupLatitude
p2037
F40.771148681640625
sa(dp2038
Vfare
p2039
F11.0
sVpassengers
p2040
I1
sVdropoffLongitude
p2041
F-73.97744750976562
sVpickupTime
p2042
g6
(S'\x07\xe0\x01\x01\x12\x13\x05\x00\x00\x00'
p2043
tp2044
Rp2045
sVdropoffLatitude
p2046
F40.78732681274414
sVdropoffTime
p2047
g6
(S'\x07\xe0\x01\x01\x12\x1f1\x00\x00\x00'
p2048
tp2049
Rp2050
sV_id
p2051
g16
(g17
g18
Ntp2052
Rp2053
S'XD\xea\xdc\x1dA\xc8RU>\xb93'
p2054
bsVpickupLongitude
p2055
F-73.94694519042969
sVpickupLatitude
p2056
F40.77199935913086
sa(dp2057
Vfare
p2058
F22.5
sVpassengers
p2059
I1
sVdropoffLongitude
p2060
F-73.88700103759766
sVpickupTime
p2061
g6
(S'\x07\xe0\x01\x01\x12#7\x00\x00\x00'
p2062
tp2063
Rp2064
sVdropoffLatitude
p2065
F40.75396728515625
sVdropoffTime
p2066
g6
(S'\x07\xe0\x01\x01\x129:\x00\x00\x00'
p2067
tp2068
Rp2069
sV_id
p2070
g16
(g17
g18
Ntp2071
Rp2072
S'XD\xea\xdc\x1dA\xc8RU>\xcbP'
p2073
bsVpickupLongitude
p2074
F-73.9466781616211
sVpickupLatitude
p2075
F40.77198791503906
sa(dp2076
Vfare
p2077
F28.0
sVpassengers
p2078
I2
sVdropoffLongitude
p2079
F-73.97176361083984
sVpickupTime
p2080
g6
(S'\x07\xe0\x01\x01\x12&+\x00\x00\x00'
p2081
tp2082
Rp2083
sVdropoffLatitude
p2084
F40.67896270751953
sVdropoffTime
p2085
g6
(S'\x07\xe0\x01\x01\x12:\x05\x00\x00\x00'
p2086
tp2087
Rp2088
sV_id
p2089
g16
(g17
g18
Ntp2090
Rp2091
S'XD\xea\xdc\x1dA\xc8RU>\xce('
p2092
bsVpickupLongitude
p2093
F-73.94761657714844
sVpickupLatitude
p2094
F40.7712287902832
sa(dp2095
Vfare
p2096
F5.5
sVpassengers
p2097
I1
sVdropoffLongitude
p2098
F-73.95368194580078
sVpickupTime
p2099
g6
(S'\x07\xe0\x01\x01\x12(\x0e\x00\x00\x00'
p2100
tp2101
Rp2102
sVdropoffLatitude
p2103
F40.77857971191406
sVdropoffTime
p2104
g6
(S'\x07\xe0\x01\x01\x12-7\x00\x00\x00'
p2105
tp2106
Rp2107
sV_id
p2108
g16
(g17
g18
Ntp2109
Rp2110
S'XD\xea\xdc\x1dA\xc8RU>\xcf\xce'
p2111
bsVpickupLongitude
p2112
F-73.94721984863281
sVpickupLatitude
p2113
F40.771881103515625
sa(dp2114
Vfare
p2115
F16.5
sVpassengers
p2116
I1
sVdropoffLongitude
p2117
F-73.99376678466797
sVpickupTime
p2118
g6
(S'\x07\xe0\x01\x01\x12-\x11\x00\x00\x00'
p2119
tp2120
Rp2121
sVdropoffLatitude
p2122
F40.72711944580078
sVdropoffTime
p2123
g6
(S'\x07\xe0\x01\x01\x128\x0e\x00\x00\x00'
p2124
tp2125
Rp2126
sV_id
p2127
g16
(g17
g18
Ntp2128
Rp2129
S'XD\xea\xdc\x1dA\xc8RU>\xd5\xb5'
p2130
bsVpickupLongitude
p2131
F-73.94737243652344
sVpickupLatitude
p2132
F40.77123260498047
sa(dp2133
Vfare
p2134
F13.0
sVpassengers
p2135
I1
sVdropoffLongitude
p2136
F-73.98541259765625
sVpickupTime
p2137
g6
(S'\x07\xe0\x01\x01\x1221\x00\x00\x00'
p2138
tp2139
Rp2140
sVdropoffLatitude
p2141
F40.74370574951172
sVdropoffTime
p2142
g6
(S'\x07\xe0\x01\x01\x13\x00\x1b\x00\x00\x00'
p2143
tp2144
Rp2145
sV_id
p2146
g16
(g17
g18
Ntp2147
Rp2148
S'XD\xea\xdc\x1dA\xc8RU>\xdc\x1f'
p2149
bsVpickupLongitude
p2150
F-73.94683837890625
sVpickupLatitude
p2151
F40.77197265625
sa(dp2152
Vfare
p2153
F5.5
sVpassengers
p2154
I5
sVdropoffLongitude
p2155
F-73.9598617553711
sVpickupTime
p2156
g6
(S'\x07\xe0\x01\x01\x1248\x00\x00\x00'
p2157
tp2158
Rp2159
sVdropoffLatitude
p2160
F40.76261901855469
sVdropoffTime
p2161
g6
(S'\x07\xe0\x01\x01\x128\x17\x00\x00\x00'
p2162
tp2163
Rp2164
sV_id
p2165
g16
(g17
g18
Ntp2166
Rp2167
S'XD\xea\xdc\x1dA\xc8RU>\xde\xcd'
p2168
bsVpickupLongitude
p2169
F-73.94698333740234
sVpickupLatitude
p2170
F40.77194595336914
sa(dp2171
Vfare
p2172
F11.0
sVpassengers
p2173
I1
sVdropoffLongitude
p2174
F-73.97760772705078
sVpickupTime
p2175
g6
(S'\x07\xe0\x01\x01\x1250\x00\x00\x00'
p2176
tp2177
Rp2178
sVdropoffLatitude
p2179
F40.74555206298828
sVdropoffTime
p2180
g6
(S'\x07\xe0\x01\x01\x13\x05\x10\x00\x00\x00'
p2181
tp2182
Rp2183
sV_id
p2184
g16
(g17
g18
Ntp2185
Rp2186
S'XD\xea\xdc\x1dA\xc8RU>\xdf\xdf'
p2187
bsVpickupLongitude
p2188
F-73.94986724853516
sVpickupLatitude
p2189
F40.77167892456055
sa(dp2190
Vfare
p2191
F12.5
sVpassengers
p2192
I1
sVdropoffLongitude
p2193
F-73.9778060913086
sVpickupTime
p2194
g6
(S'\x07\xe0\x01\x01\x1252\x00\x00\x00'
p2195
tp2196
Rp2197
sVdropoffLatitude
p2198
F40.79210662841797
sVdropoffTime
p2199
g6
(S'\x07\xe0\x01\x01\x13\t$\x00\x00\x00'
p2200
tp2201
Rp2202
sV_id
p2203
g16
(g17
g18
Ntp2204
Rp2205
S'XD\xea\xdc\x1dA\xc8RU>\xdf\xeb'
p2206
bsVpickupLongitude
p2207
F-73.94703674316406
sVpickupLatitude
p2208
F40.77156448364258
sa(dp2209
Vfare
p2210
F4.0
sVpassengers
p2211
I2
sVdropoffLongitude
p2212
F-73.95714569091797
sVpickupTime
p2213
g6
(S'\x07\xe0\x01\x01\x129\t\x00\x00\x00'
p2214
tp2215
Rp2216
sVdropoffLatitude
p2217
F40.77457046508789
sVdropoffTime
p2218
g6
(S'\x07\xe0\x01\x01\x12;\x03\x00\x00\x00'
p2219
tp2220
Rp2221
sV_id
p2222
g16
(g17
g18
Ntp2223
Rp2224
S'XD\xea\xdc\x1dA\xc8RU>\xe3\x82'
p2225
bsVpickupLongitude
p2226
F-73.94947052001953
sVpickupLatitude
p2227
F40.771095275878906
sa(dp2228
Vfare
p2229
F18.5
sVpassengers
p2230
I5
sVdropoffLongitude
p2231
F-73.9847183227539
sVpickupTime
p2232
g6
(S'\x07\xe0\x01\x01\x13\x02)\x00\x00\x00'
p2233
tp2234
Rp2235
sVdropoffLatitude
p2236
F40.75741195678711
sVdropoffTime
p2237
g6
(S"\x07\xe0\x01\x01\x13\x1c'\x00\x00\x00"
p2238
tp2239
Rp2240
sV_id
p2241
g16
(g17
g18
Ntp2242
Rp2243
S'XD\xea\xdc\x1dA\xc8RU>\xe9L'
p2244
bsVpickupLongitude
p2245
F-73.94715881347656
sVpickupLatitude
p2246
F40.77140808105469
sa(dp2247
Vfare
p2248
F15.5
sVpassengers
p2249
I1
sVdropoffLongitude
p2250
F-73.9826889038086
sVpickupTime
p2251
g6
(S'\x07\xe0\x01\x01\x13\n&\x00\x00\x00'
p2252
tp2253
Rp2254
sVdropoffLatitude
p2255
F40.75950622558594
sVdropoffTime
p2256
g6
(S'\x07\xe0\x01\x01\x13\x1e.\x00\x00\x00'
p2257
tp2258
Rp2259
sV_id
p2260
g16
(g17
g18
Ntp2261
Rp2262
S'XD\xea\xdc\x1dA\xc8RU>\xf1\xc6'
p2263
bsVpickupLongitude
p2264
F-73.94692993164062
sVpickupLatitude
p2265
F40.77177047729492
sa(dp2266
Vfare
p2267
F5.5
sVpassengers
p2268
I2
sVdropoffLongitude
p2269
F-73.94551849365234
sVpickupTime
p2270
g6
(S'\x07\xe0\x01\x01\x13/\x0b\x00\x00\x00'
p2271
tp2272
Rp2273
sVdropoffLatitude
p2274
F40.78196334838867
sVdropoffTime
p2275
g6
(S'\x07\xe0\x01\x01\x1323\x00\x00\x00'
p2276
tp2277
Rp2278
sV_id
p2279
g16
(g17
g18
Ntp2280
Rp2281
S'XD\xea\xdc\x1dA\xc8RU?\x17\xb2'
p2282
bsVpickupLongitude
p2283
F-73.9494857788086
sVpickupLatitude
p2284
F40.771156311035156
sa(dp2285
Vfare
p2286
F7.0
sVpassengers
p2287
I6
sVdropoffLongitude
p2288
F-73.96311950683594
sVpickupTime
p2289
g6
(S'\x07\xe0\x01\x01\x130)\x00\x00\x00'
p2290
tp2291
Rp2292
sVdropoffLatitude
p2293
F40.75672912597656
sVdropoffTime
p2294
g6
(S'\x07\xe0\x01\x01\x135\x0b\x00\x00\x00'
p2295
tp2296
Rp2297
sV_id
p2298
g16
(g17
g18
Ntp2299
Rp2300
S'XD\xea\xdd\x1dA\xc8RU?\x19!'
p2301
bsVpickupLongitude
p2302
F-73.94703674316406
sVpickupLatitude
p2303
F40.77170181274414
sa(dp2304
Vfare
p2305
F10.5
sVpassengers
p2306
I4
sVdropoffLongitude
p2307
F-73.97142028808594
sVpickupTime
p2308
g6
(S'\x07\xe0\x01\x01\x14\x084\x00\x00\x00'
p2309
tp2310
Rp2311
sVdropoffLatitude
p2312
F40.76601791381836
sVdropoffTime
p2313
g6
(S'\x07\xe0\x01\x01\x14\x16\r\x00\x00\x00'
p2314
tp2315
Rp2316
sV_id
p2317
g16
(g17
g18
Ntp2318
Rp2319
S'XD\xea\xdd\x1dA\xc8RU?+\x9e'
p2320
bsVpickupLongitude
p2321
F-73.94750213623047
sVpickupLatitude
p2322
F40.771240234375
sa(dp2323
Vfare
p2324
F7.0
sVpassengers
p2325
I2
sVdropoffLongitude
p2326
F-73.96793365478516
sVpickupTime
p2327
g6
(S'\x07\xe0\x01\x01\x14\x0c\x08\x00\x00\x00'
p2328
tp2329
Rp2330
sVdropoffLatitude
p2331
F40.771400451660156
sVdropoffTime
p2332
g6
(S'\x07\xe0\x01\x01\x14\x13\x00\x00\x00\x00'
p2333
tp2334
Rp2335
sV_id
p2336
g16
(g17
g18
Ntp2337
Rp2338
S'XD\xea\xdd\x1dA\xc8RU?.J'
p2339
bsVpickupLongitude
p2340
F-73.94740295410156
sVpickupLatitude
p2341
F40.77106857299805
sa(dp2342
Vfare
p2343
F6.5
sVpassengers
p2344
I1
sVdropoffLongitude
p2345
F-73.95986938476562
sVpickupTime
p2346
g6
(S'\x07\xe0\x01\x01\x14\r3\x00\x00\x00'
p2347
tp2348
Rp2349
sVdropoffLatitude
p2350
F40.75870132446289
sVdropoffTime
p2351
g6
(S'\x07\xe0\x01\x01\x14\x121\x00\x00\x00'
p2352
tp2353
Rp2354
sV_id
p2355
g16
(g17
g18
Ntp2356
Rp2357
S'XD\xea\xdd\x1dA\xc8RU?/\xcb'
p2358
bsVpickupLongitude
p2359
F-73.94745635986328
sVpickupLatitude
p2360
F40.77115249633789
sa(dp2361
Vfare
p2362
F20.5
sVpassengers
p2363
I1
sVdropoffLongitude
p2364
F-73.99424743652344
sVpickupTime
p2365
g6
(S"\x07\xe0\x01\x01\x14\x0e'\x00\x00\x00"
p2366
tp2367
Rp2368
sVdropoffLatitude
p2369
F40.75099182128906
sVdropoffTime
p2370
g6
(S'\x07\xe0\x01\x01\x14(\r\x00\x00\x00'
p2371
tp2372
Rp2373
sV_id
p2374
g16
(g17
g18
Ntp2375
Rp2376
S'XD\xea\xdd\x1dA\xc8RU?0y'
p2377
bsVpickupLongitude
p2378
F-73.94690704345703
sVpickupLatitude
p2379
F40.77162170410156
sa(dp2380
Vfare
p2381
F11.0
sVpassengers
p2382
I1
sVdropoffLongitude
p2383
F-73.98143768310547
sVpickupTime
p2384
g6
(S'\x07\xe0\x01\x01\x14)&\x00\x00\x00'
p2385
tp2386
Rp2387
sVdropoffLatitude
p2388
F40.747222900390625
sVdropoffTime
p2389
g6
(S'\x07\xe0\x01\x01\x142\x1b\x00\x00\x00'
p2390
tp2391
Rp2392
sV_id
p2393
g16
(g17
g18
Ntp2394
Rp2395
S'XD\xea\xdd\x1dA\xc8RU?G\xd2'
p2396
bsVpickupLongitude
p2397
F-73.94727325439453
sVpickupLatitude
p2398
F40.77172088623047
sa(dp2399
Vfare
p2400
F7.5
sVpassengers
p2401
I1
sVdropoffLongitude
p2402
F-73.97035217285156
sVpickupTime
p2403
g6
(S'\x07\xe0\x01\x01\x15\n\x18\x00\x00\x00'
p2404
tp2405
Rp2406
sVdropoffLatitude
p2407
F40.75481033325195
sVdropoffTime
p2408
g6
(S'\x07\xe0\x01\x01\x15\x0e4\x00\x00\x00'
p2409
tp2410
Rp2411
sV_id
p2412
g16
(g17
g18
Ntp2413
Rp2414
S'XD\xea\xdd\x1dA\xc8RU?_\xef'
p2415
bsVpickupLongitude
p2416
F-73.94747924804688
sVpickupLatitude
p2417
F40.771278381347656
sa(dp2418
Vfare
p2419
F24.5
sVpassengers
p2420
I1
sVdropoffLongitude
p2421
F-73.88091278076172
sVpickupTime
p2422
g6
(S'\x07\xe0\x01\x01\x15$\x17\x00\x00\x00'
p2423
tp2424
Rp2425
sVdropoffLatitude
p2426
F40.75161361694336
sVdropoffTime
p2427
g6
(S'\x07\xe0\x01\x01\x16\x04(\x00\x00\x00'
p2428
tp2429
Rp2430
sV_id
p2431
g16
(g17
g18
Ntp2432
Rp2433
S'XD\xea\xdd\x1dA\xc8RU?vK'
p2434
bsVpickupLongitude
p2435
F-73.94976806640625
sVpickupLatitude
p2436
F40.771915435791016
sa(dp2437
Vfare
p2438
F5.5
sVpassengers
p2439
I2
sVdropoffLongitude
p2440
F-73.95332336425781
sVpickupTime
p2441
g6
(S'\x07\xe0\x01\x01\x15--\x00\x00\x00'
p2442
tp2443
Rp2444
sVdropoffLatitude
p2445
F40.7796516418457
sVdropoffTime
p2446
g6
(S'\x07\xe0\x01\x01\x152\x19\x00\x00\x00'
p2447
tp2448
Rp2449
sV_id
p2450
g16
(g17
g18
Ntp2451
Rp2452
S'XD\xea\xdd\x1dA\xc8RU?~;'
p2453
bsVpickupLongitude
p2454
F-73.94691467285156
sVpickupLatitude
p2455
F40.77175521850586
sa(dp2456
Vfare
p2457
F8.5
sVpassengers
p2458
I1
sVdropoffLongitude
p2459
F-73.96966552734375
sVpickupTime
p2460
g6
(S'\x07\xe0\x01\x01\x15/\x1e\x00\x00\x00'
p2461
tp2462
Rp2463
sVdropoffLatitude
p2464
F40.760093688964844
sVdropoffTime
p2465
g6
(S'\x07\xe0\x01\x01\x158\x12\x00\x00\x00'
p2466
tp2467
Rp2468
sV_id
p2469
g16
(g17
g18
Ntp2470
Rp2471
S'XD\xea\xdd\x1dA\xc8RU?\x7f\xe2'
p2472
bsVpickupLongitude
p2473
F-73.94847869873047
sVpickupLatitude
p2474
F40.77117156982422
sa(dp2475
Vfare
p2476
F10.0
sVpassengers
p2477
I1
sVdropoffLongitude
p2478
F-73.97740936279297
sVpickupTime
p2479
g6
(S'\x07\xe0\x01\x01\x1579\x00\x00\x00'
p2480
tp2481
Rp2482
sVdropoffLatitude
p2483
F40.7469482421875
sVdropoffTime
p2484
g6
(S'\x07\xe0\x01\x01\x16\x02\x0b\x00\x00\x00'
p2485
tp2486
Rp2487
sV_id
p2488
g16
(g17
g18
Ntp2489
Rp2490
S'XD\xea\xdd\x1dA\xc8RU?\x87\x11'
p2491
bsVpickupLongitude
p2492
F-73.94696044921875
sVpickupLatitude
p2493
F40.77170944213867
sa(dp2494
Vfare
p2495
F7.0
sVpassengers
p2496
I1
sVdropoffLongitude
p2497
F-73.95183563232422
sVpickupTime
p2498
g6
(S'\x07\xe0\x01\x01\x16\x12\x1e\x00\x00\x00'
p2499
tp2500
Rp2501
sVdropoffLatitude
p2502
F40.78542709350586
sVdropoffTime
p2503
g6
(S'\x07\xe0\x01\x01\x16\x194\x00\x00\x00'
p2504
tp2505
Rp2506
sV_id
p2507
g16
(g17
g18
Ntp2508
Rp2509
S'XD\xea\xdd\x1dA\xc8RU?\x9a\xfb'
p2510
bsVpickupLongitude
p2511
F-73.94697570800781
sVpickupLatitude
p2512
F40.771881103515625
sa(dp2513
Vfare
p2514
F4.5
sVpassengers
p2515
I1
sVdropoffLongitude
p2516
F-73.95588684082031
sVpickupTime
p2517
g6
(S'\x07\xe0\x01\x01\x16\x1c,\x00\x00\x00'
p2518
tp2519
Rp2520
sVdropoffLatitude
p2521
F40.77202224731445
sVdropoffTime
p2522
g6
(S'\x07\xe0\x01\x01\x16 \x16\x00\x00\x00'
p2523
tp2524
Rp2525
sV_id
p2526
g16
(g17
g18
Ntp2527
Rp2528
S'XD\xea\xdd\x1dA\xc8RU?\xa3\xe3'
p2529
bsVpickupLongitude
p2530
F-73.94966888427734
sVpickupLatitude
p2531
F40.77174377441406
sa(dp2532
Vfare
p2533
F6.0
sVpassengers
p2534
I1
sVdropoffLongitude
p2535
F-73.96083068847656
sVpickupTime
p2536
g6
(S'\x07\xe0\x01\x01\x16\x1d\x03\x00\x00\x00'
p2537
tp2538
Rp2539
sVdropoffLatitude
p2540
F40.76982879638672
sVdropoffTime
p2541
g6
(S'\x07\xe0\x01\x01\x16!(\x00\x00\x00'
p2542
tp2543
Rp2544
sV_id
p2545
g16
(g17
g18
Ntp2546
Rp2547
S'XD\xea\xdd\x1dA\xc8RU?\xa4('
p2548
bsVpickupLongitude
p2549
F-73.94676971435547
sVpickupLatitude
p2550
F40.77167892456055
sa(dp2551
Vfare
p2552
F52.0
sVpassengers
p2553
I2
sVdropoffLongitude
p2554
F-73.94977569580078
sVpickupTime
p2555
g6
(S'\x07\xe0\x01\x01\x164\x18\x00\x00\x00'
p2556
tp2557
Rp2558
sVdropoffLatitude
p2559
F40.771968841552734
sVdropoffTime
p2560
g6
(S'\x07\xe0\x01\x01\x164$\x00\x00\x00'
p2561
tp2562
Rp2563
sV_id
p2564
g16
(g17
g18
Ntp2565
Rp2566
S'XD\xea\xde\x1dA\xc8RU?\xb9\xe3'
p2567
bsVpickupLongitude
p2568
F-73.94985961914062
sVpickupLatitude
p2569
F40.771854400634766
sa.